
sources/kernel/bin/kernel.bin:     format de fichier elf32-i386


Déassemblage de la section .text :

00100000 <__start>:
  100000:	02 b0 ad 1b 03 00    	add    dh,BYTE PTR [eax+0x31bad]
  100006:	00 00                	add    BYTE PTR [eax],al
  100008:	fb                   	sti    
  100009:	4f                   	dec    edi
  10000a:	52                   	push   edx
  10000b:	e4 66                	in     al,0x66
  10000d:	90                   	nop
  10000e:	66 90                	xchg   ax,ax

00100010 <filesystem_setup>:
directory_t *root = NULL;

directory_t *alloc_directorie(const char *name);

void filesystem_setup()
{
  100010:	53                   	push   ebx
  100011:	83 ec 14             	sub    esp,0x14
    log("Allocating root directorie...");
  100014:	68 80 1e 11 00       	push   0x111e80
  100019:	e8 82 16 00 00       	call   1016a0 <log>

/* === Directories ========================================================== */

directory_t *alloc_directorie(const char *name)
{
    directory_t *dir = MALLOC(directory_t);
  10001e:	c7 04 24 8c 00 00 00 	mov    DWORD PTR [esp],0x8c
  100025:	e8 76 6f 00 00       	call   106fa0 <malloc>

    dir->name[0] = '\0';
    strncpy((char *)&dir->name, name, PATH_FILE_NAME_SIZE);
  10002a:	83 c4 0c             	add    esp,0xc
    dir->name[0] = '\0';
  10002d:	c6 00 00             	mov    BYTE PTR [eax],0x0
    directory_t *dir = MALLOC(directory_t);
  100030:	89 c3                	mov    ebx,eax
    strncpy((char *)&dir->name, name, PATH_FILE_NAME_SIZE);
  100032:	68 80 00 00 00       	push   0x80
  100037:	68 9e 1e 11 00       	push   0x111e9e
  10003c:	50                   	push   eax
  10003d:	e8 fe 5d 00 00       	call   105e40 <strncpy>
    dir->directories = sll_new();
  100042:	e8 99 7b 00 00       	call   107be0 <sll_new>
  100047:	89 83 84 00 00 00    	mov    DWORD PTR [ebx+0x84],eax
    dir->files = sll_new();
  10004d:	e8 8e 7b 00 00       	call   107be0 <sll_new>
    root = alloc_directorie("ROOT");
  100052:	89 1d 00 ae 23 00    	mov    DWORD PTR ds:0x23ae00,ebx
    dir->files = sll_new();
  100058:	89 83 80 00 00 00    	mov    DWORD PTR [ebx+0x80],eax
}
  10005e:	83 c4 18             	add    esp,0x18
  100061:	5b                   	pop    ebx
  100062:	c3                   	ret    
  100063:	8d b6 00 00 00 00    	lea    esi,[esi+0x0]
  100069:	8d bc 27 00 00 00 00 	lea    edi,[edi+eiz*1+0x0]

00100070 <filesystem_get_directory>:
{
  100070:	55                   	push   ebp
  100071:	57                   	push   edi
  100072:	56                   	push   esi
  100073:	53                   	push   ebx
  100074:	81 ec 9c 00 00 00    	sub    esp,0x9c
  10007a:	8b 9c 24 b0 00 00 00 	mov    ebx,DWORD PTR [esp+0xb0]
  100081:	8d 7c 24 10          	lea    edi,[esp+0x10]
    directory_t * current = relative ? relative : root;
  100085:	85 db                	test   ebx,ebx
  100087:	0f 44 1d 00 ae 23 00 	cmove  ebx,DWORD PTR ds:0x23ae00
                    current = d;
  10008e:	31 f6                	xor    esi,esi
  100090:	eb 0f                	jmp    1000a1 <filesystem_get_directory+0x31>
  100092:	8d b6 00 00 00 00    	lea    esi,[esi+0x0]
            current = current->parent;
  100098:	8b 9b 88 00 00 00    	mov    ebx,DWORD PTR [ebx+0x88]
    for (int i = 0; path_read(path, i, buffer); i++) 
  10009e:	83 c6 01             	add    esi,0x1
  1000a1:	83 ec 04             	sub    esp,0x4
  1000a4:	57                   	push   edi
  1000a5:	56                   	push   esi
  1000a6:	ff b4 24 c0 00 00 00 	push   DWORD PTR [esp+0xc0]
  1000ad:	e8 6e 82 00 00       	call   108320 <path_read>
  1000b2:	83 c4 10             	add    esp,0x10
  1000b5:	85 c0                	test   eax,eax
  1000b7:	74 67                	je     100120 <filesystem_get_directory+0xb0>
        if (strcmp(buffer, "..") == 0)
  1000b9:	83 ec 08             	sub    esp,0x8
  1000bc:	68 a0 21 11 00       	push   0x1121a0
  1000c1:	57                   	push   edi
  1000c2:	e8 b9 5a 00 00       	call   105b80 <strcmp>
  1000c7:	83 c4 10             	add    esp,0x10
  1000ca:	85 c0                	test   eax,eax
  1000cc:	74 ca                	je     100098 <filesystem_get_directory+0x28>
        else if (strcmp(buffer, ".") == 0)
  1000ce:	83 ec 08             	sub    esp,0x8
  1000d1:	68 eb 1e 11 00       	push   0x111eeb
  1000d6:	57                   	push   edi
  1000d7:	e8 a4 5a 00 00       	call   105b80 <strcmp>
  1000dc:	83 c4 10             	add    esp,0x10
  1000df:	85 c0                	test   eax,eax
  1000e1:	74 bb                	je     10009e <filesystem_get_directory+0x2e>
            SLL_FOREARCH(i, current->directories)
  1000e3:	8b 83 84 00 00 00    	mov    eax,DWORD PTR [ebx+0x84]
  1000e9:	8b 68 04             	mov    ebp,DWORD PTR [eax+0x4]
  1000ec:	85 ed                	test   ebp,ebp
  1000ee:	74 ae                	je     10009e <filesystem_get_directory+0x2e>
                directory_t *d = (directory_t *)i->data;
  1000f0:	8b 4d 00             	mov    ecx,DWORD PTR [ebp+0x0]
                if (strcmp(buffer, d->name) == 0)
  1000f3:	83 ec 08             	sub    esp,0x8
  1000f6:	51                   	push   ecx
  1000f7:	89 4c 24 18          	mov    DWORD PTR [esp+0x18],ecx
  1000fb:	57                   	push   edi
  1000fc:	e8 7f 5a 00 00       	call   105b80 <strcmp>
  100101:	83 c4 10             	add    esp,0x10
                    current = d;
  100104:	8b 4c 24 0c          	mov    ecx,DWORD PTR [esp+0xc]
            SLL_FOREARCH(i, current->directories)
  100108:	8b 6d 04             	mov    ebp,DWORD PTR [ebp+0x4]
                    current = d;
  10010b:	85 c0                	test   eax,eax
  10010d:	0f 44 d9             	cmove  ebx,ecx
            SLL_FOREARCH(i, current->directories)
  100110:	85 ed                	test   ebp,ebp
  100112:	75 dc                	jne    1000f0 <filesystem_get_directory+0x80>
  100114:	eb 88                	jmp    10009e <filesystem_get_directory+0x2e>
  100116:	8d 76 00             	lea    esi,[esi+0x0]
  100119:	8d bc 27 00 00 00 00 	lea    edi,[edi+eiz*1+0x0]
}
  100120:	81 c4 9c 00 00 00    	add    esp,0x9c
  100126:	89 d8                	mov    eax,ebx
  100128:	5b                   	pop    ebx
  100129:	5e                   	pop    esi
  10012a:	5f                   	pop    edi
  10012b:	5d                   	pop    ebp
  10012c:	c3                   	ret    
  10012d:	8d 76 00             	lea    esi,[esi+0x0]

00100130 <filesystem_get_file>:
{
  100130:	55                   	push   ebp
  100131:	57                   	push   edi
  100132:	56                   	push   esi
  100133:	53                   	push   ebx
  100134:	81 ec 28 01 00 00    	sub    esp,0x128
  10013a:	8b b4 24 40 01 00 00 	mov    esi,DWORD PTR [esp+0x140]
  100141:	8b 9c 24 3c 01 00 00 	mov    ebx,DWORD PTR [esp+0x13c]
    char *dir_name = malloc(strlen(path));
  100148:	56                   	push   esi
  100149:	e8 72 5f 00 00       	call   1060c0 <strlen>
  10014e:	89 04 24             	mov    DWORD PTR [esp],eax
  100151:	e8 4a 6e 00 00       	call   106fa0 <malloc>
    if (path_split(path, dir_name, file_name))
  100156:	83 c4 0c             	add    esp,0xc
    char *dir_name = malloc(strlen(path));
  100159:	89 c5                	mov    ebp,eax
    if (path_split(path, dir_name, file_name))
  10015b:	8d 44 24 14          	lea    eax,[esp+0x14]
  10015f:	50                   	push   eax
  100160:	55                   	push   ebp
  100161:	56                   	push   esi
  100162:	e8 29 83 00 00       	call   108490 <path_split>
  100167:	83 c4 10             	add    esp,0x10
  10016a:	85 c0                	test   eax,eax
  10016c:	0f 84 fe 00 00 00    	je     100270 <filesystem_get_file+0x140>
    directory_t * current = relative ? relative : root;
  100172:	85 db                	test   ebx,ebx
  100174:	8d bc 24 90 00 00 00 	lea    edi,[esp+0x90]
  10017b:	0f 44 1d 00 ae 23 00 	cmove  ebx,DWORD PTR ds:0x23ae00
                    current = d;
  100182:	31 f6                	xor    esi,esi
  100184:	eb 13                	jmp    100199 <filesystem_get_file+0x69>
  100186:	8d 76 00             	lea    esi,[esi+0x0]
  100189:	8d bc 27 00 00 00 00 	lea    edi,[edi+eiz*1+0x0]
            current = current->parent;
  100190:	8b 9b 88 00 00 00    	mov    ebx,DWORD PTR [ebx+0x88]
    for (int i = 0; path_read(path, i, buffer); i++) 
  100196:	83 c6 01             	add    esi,0x1
  100199:	83 ec 04             	sub    esp,0x4
  10019c:	57                   	push   edi
  10019d:	56                   	push   esi
  10019e:	55                   	push   ebp
  10019f:	e8 7c 81 00 00       	call   108320 <path_read>
  1001a4:	83 c4 10             	add    esp,0x10
  1001a7:	85 c0                	test   eax,eax
  1001a9:	74 75                	je     100220 <filesystem_get_file+0xf0>
        if (strcmp(buffer, "..") == 0)
  1001ab:	83 ec 08             	sub    esp,0x8
  1001ae:	68 a0 21 11 00       	push   0x1121a0
  1001b3:	57                   	push   edi
  1001b4:	e8 c7 59 00 00       	call   105b80 <strcmp>
  1001b9:	83 c4 10             	add    esp,0x10
  1001bc:	85 c0                	test   eax,eax
  1001be:	74 d0                	je     100190 <filesystem_get_file+0x60>
        else if (strcmp(buffer, ".") == 0)
  1001c0:	83 ec 08             	sub    esp,0x8
  1001c3:	68 eb 1e 11 00       	push   0x111eeb
  1001c8:	57                   	push   edi
  1001c9:	e8 b2 59 00 00       	call   105b80 <strcmp>
  1001ce:	83 c4 10             	add    esp,0x10
  1001d1:	85 c0                	test   eax,eax
  1001d3:	74 c1                	je     100196 <filesystem_get_file+0x66>
            SLL_FOREARCH(i, current->directories)
  1001d5:	8b 83 84 00 00 00    	mov    eax,DWORD PTR [ebx+0x84]
  1001db:	8b 50 04             	mov    edx,DWORD PTR [eax+0x4]
  1001de:	85 d2                	test   edx,edx
  1001e0:	74 b4                	je     100196 <filesystem_get_file+0x66>
  1001e2:	89 74 24 0c          	mov    DWORD PTR [esp+0xc],esi
  1001e6:	89 6c 24 08          	mov    DWORD PTR [esp+0x8],ebp
  1001ea:	89 de                	mov    esi,ebx
  1001ec:	89 d3                	mov    ebx,edx
  1001ee:	66 90                	xchg   ax,ax
                directory_t *d = (directory_t *)i->data;
  1001f0:	8b 2b                	mov    ebp,DWORD PTR [ebx]
                if (strcmp(buffer, d->name) == 0)
  1001f2:	83 ec 08             	sub    esp,0x8
  1001f5:	55                   	push   ebp
  1001f6:	57                   	push   edi
  1001f7:	e8 84 59 00 00       	call   105b80 <strcmp>
            SLL_FOREARCH(i, current->directories)
  1001fc:	8b 5b 04             	mov    ebx,DWORD PTR [ebx+0x4]
                if (strcmp(buffer, d->name) == 0)
  1001ff:	83 c4 10             	add    esp,0x10
                    current = d;
  100202:	85 c0                	test   eax,eax
  100204:	0f 44 f5             	cmove  esi,ebp
            SLL_FOREARCH(i, current->directories)
  100207:	85 db                	test   ebx,ebx
  100209:	75 e5                	jne    1001f0 <filesystem_get_file+0xc0>
  10020b:	89 f3                	mov    ebx,esi
  10020d:	8b 6c 24 08          	mov    ebp,DWORD PTR [esp+0x8]
  100211:	8b 74 24 0c          	mov    esi,DWORD PTR [esp+0xc]
  100215:	e9 7c ff ff ff       	jmp    100196 <filesystem_get_file+0x66>
  10021a:	8d b6 00 00 00 00    	lea    esi,[esi+0x0]
        SLL_FOREARCH(i, dir->files)
  100220:	8b 83 80 00 00 00    	mov    eax,DWORD PTR [ebx+0x80]
  100226:	8b 58 04             	mov    ebx,DWORD PTR [eax+0x4]
  100229:	85 db                	test   ebx,ebx
  10022b:	74 43                	je     100270 <filesystem_get_file+0x140>
    file_t *file = NULL;
  10022d:	31 f6                	xor    esi,esi
  10022f:	90                   	nop
            file_t* f = (file_t *)i->data;
  100230:	8b 3b                	mov    edi,DWORD PTR [ebx]
            if (strcmp(file_name, f->name) == 0)
  100232:	83 ec 08             	sub    esp,0x8
  100235:	8d 47 0c             	lea    eax,[edi+0xc]
  100238:	50                   	push   eax
  100239:	8d 44 24 1c          	lea    eax,[esp+0x1c]
  10023d:	50                   	push   eax
  10023e:	e8 3d 59 00 00       	call   105b80 <strcmp>
        SLL_FOREARCH(i, dir->files)
  100243:	8b 5b 04             	mov    ebx,DWORD PTR [ebx+0x4]
            if (strcmp(file_name, f->name) == 0)
  100246:	83 c4 10             	add    esp,0x10
                file = f;
  100249:	85 c0                	test   eax,eax
  10024b:	0f 44 f7             	cmove  esi,edi
        SLL_FOREARCH(i, dir->files)
  10024e:	85 db                	test   ebx,ebx
  100250:	75 de                	jne    100230 <filesystem_get_file+0x100>
    free(dir_name);
  100252:	83 ec 0c             	sub    esp,0xc
  100255:	55                   	push   ebp
  100256:	e8 15 72 00 00       	call   107470 <free>
}
  10025b:	81 c4 2c 01 00 00    	add    esp,0x12c
  100261:	89 f0                	mov    eax,esi
  100263:	5b                   	pop    ebx
  100264:	5e                   	pop    esi
  100265:	5f                   	pop    edi
  100266:	5d                   	pop    ebp
  100267:	c3                   	ret    
  100268:	90                   	nop
  100269:	8d b4 26 00 00 00 00 	lea    esi,[esi+eiz*1+0x0]
    file_t *file = NULL;
  100270:	31 f6                	xor    esi,esi
  100272:	eb de                	jmp    100252 <filesystem_get_file+0x122>
  100274:	8d b6 00 00 00 00    	lea    esi,[esi+0x0]
  10027a:	8d bf 00 00 00 00    	lea    edi,[edi+0x0]

00100280 <dump_directorie>:
{
  100280:	55                   	push   ebp
  100281:	57                   	push   edi
  100282:	56                   	push   esi
  100283:	53                   	push   ebx
  100284:	81 ec 9c 00 00 00    	sub    esp,0x9c
    for (int i = 0; i < depth; i++)
  10028a:	8b 94 24 b4 00 00 00 	mov    edx,DWORD PTR [esp+0xb4]
{
  100291:	8b ac 24 b8 00 00 00 	mov    ebp,DWORD PTR [esp+0xb8]
    for (int i = 0; i < depth; i++)
  100298:	85 d2                	test   edx,edx
  10029a:	7e 23                	jle    1002bf <dump_directorie+0x3f>
  10029c:	8b b4 24 b4 00 00 00 	mov    esi,DWORD PTR [esp+0xb4]
  1002a3:	31 db                	xor    ebx,ebx
  1002a5:	8d 76 00             	lea    esi,[esi+0x0]
        printf("\t");
  1002a8:	83 ec 0c             	sub    esp,0xc
    for (int i = 0; i < depth; i++)
  1002ab:	83 c3 01             	add    ebx,0x1
        printf("\t");
  1002ae:	68 d6 1f 11 00       	push   0x111fd6
  1002b3:	e8 b8 63 00 00       	call   106670 <printf>
    for (int i = 0; i < depth; i++)
  1002b8:	83 c4 10             	add    esp,0x10
  1002bb:	39 de                	cmp    esi,ebx
  1002bd:	75 e9                	jne    1002a8 <dump_directorie+0x28>
    printf("%s/\n", current->name);
  1002bf:	83 ec 08             	sub    esp,0x8
  1002c2:	ff b4 24 b8 00 00 00 	push   DWORD PTR [esp+0xb8]
  1002c9:	68 a3 1e 11 00       	push   0x111ea3
  1002ce:	e8 9d 63 00 00       	call   106670 <printf>
    for (size_t i = 0; directory_get_directories(current, buffer, i); i++)
  1002d3:	83 c4 10             	add    esp,0x10
        dump_directorie(filesystem_get_directory(current, buffer), depth + 1, buffer);
  1002d6:	8b 84 24 b4 00 00 00 	mov    eax,DWORD PTR [esp+0xb4]
    for (size_t i = 0; directory_get_directories(current, buffer, i); i++)
  1002dd:	c7 44 24 04 00 00 00 	mov    DWORD PTR [esp+0x4],0x0
  1002e4:	00 
  1002e5:	8d 74 24 10          	lea    esi,[esp+0x10]
        dump_directorie(filesystem_get_directory(current, buffer), depth + 1, buffer);
  1002e9:	83 c0 01             	add    eax,0x1
  1002ec:	89 44 24 08          	mov    DWORD PTR [esp+0x8],eax

int directory_get_directories(directory_t *directory, char *name, int index)
{
    name[0] = '\0';

    SLL_FOREARCH(i, directory->directories)
  1002f0:	8b 84 24 b0 00 00 00 	mov    eax,DWORD PTR [esp+0xb0]
    name[0] = '\0';
  1002f7:	c6 45 00 00          	mov    BYTE PTR [ebp+0x0],0x0
    for (size_t i = 0; directory_get_directories(current, buffer, i); i++)
  1002fb:	8b 4c 24 04          	mov    ecx,DWORD PTR [esp+0x4]
    SLL_FOREARCH(i, directory->directories)
  1002ff:	8b 80 84 00 00 00    	mov    eax,DWORD PTR [eax+0x84]
    for (size_t i = 0; directory_get_directories(current, buffer, i); i++)
  100305:	89 ca                	mov    edx,ecx
    SLL_FOREARCH(i, directory->directories)
  100307:	8b 40 04             	mov    eax,DWORD PTR [eax+0x4]
  10030a:	85 c0                	test   eax,eax
  10030c:	74 18                	je     100326 <dump_directorie+0xa6>
    {
        if (index == 0)
  10030e:	85 c9                	test   ecx,ecx
  100310:	75 0a                	jne    10031c <dump_directorie+0x9c>
  100312:	eb 64                	jmp    100378 <dump_directorie+0xf8>
  100314:	8d 74 26 00          	lea    esi,[esi+eiz*1+0x0]
  100318:	85 d2                	test   edx,edx
  10031a:	74 5c                	je     100378 <dump_directorie+0xf8>
    SLL_FOREARCH(i, directory->directories)
  10031c:	8b 40 04             	mov    eax,DWORD PTR [eax+0x4]
        {
            strcpy(name, ((directory_t *)i->data)->name);
            return 1;
        }

        index--;
  10031f:	83 ea 01             	sub    edx,0x1
    SLL_FOREARCH(i, directory->directories)
  100322:	85 c0                	test   eax,eax
  100324:	75 f2                	jne    100318 <dump_directorie+0x98>
  100326:	8b 84 24 b4 00 00 00 	mov    eax,DWORD PTR [esp+0xb4]
  10032d:	31 db                	xor    ebx,ebx
  10032f:	8d 70 01             	lea    esi,[eax+0x1]
    SLL_FOREARCH(i, directory->files)
  100332:	8b 84 24 b0 00 00 00 	mov    eax,DWORD PTR [esp+0xb0]
    name[0] = '\0';
  100339:	c6 45 00 00          	mov    BYTE PTR [ebp+0x0],0x0
    for (size_t i = 0; (directory_get_files(current, buffer, i)); i++)
  10033d:	89 da                	mov    edx,ebx
    SLL_FOREARCH(i, directory->files)
  10033f:	8b 80 80 00 00 00    	mov    eax,DWORD PTR [eax+0x80]
  100345:	8b 40 04             	mov    eax,DWORD PTR [eax+0x4]
  100348:	85 c0                	test   eax,eax
  10034a:	74 1e                	je     10036a <dump_directorie+0xea>
        if (index == 0)
  10034c:	85 db                	test   ebx,ebx
  10034e:	75 10                	jne    100360 <dump_directorie+0xe0>
  100350:	e9 fb 00 00 00       	jmp    100450 <dump_directorie+0x1d0>
  100355:	8d 76 00             	lea    esi,[esi+0x0]
  100358:	85 d2                	test   edx,edx
  10035a:	0f 84 f0 00 00 00    	je     100450 <dump_directorie+0x1d0>
    SLL_FOREARCH(i, directory->files)
  100360:	8b 40 04             	mov    eax,DWORD PTR [eax+0x4]
        index--;
  100363:	83 ea 01             	sub    edx,0x1
    SLL_FOREARCH(i, directory->files)
  100366:	85 c0                	test   eax,eax
  100368:	75 ee                	jne    100358 <dump_directorie+0xd8>
}
  10036a:	81 c4 9c 00 00 00    	add    esp,0x9c
  100370:	5b                   	pop    ebx
  100371:	5e                   	pop    esi
  100372:	5f                   	pop    edi
  100373:	5d                   	pop    ebp
  100374:	c3                   	ret    
  100375:	8d 76 00             	lea    esi,[esi+0x0]
            strcpy(name, ((directory_t *)i->data)->name);
  100378:	83 ec 08             	sub    esp,0x8
  10037b:	ff 30                	push   DWORD PTR [eax]
        dump_directorie(filesystem_get_directory(current, buffer), depth + 1, buffer);
  10037d:	31 db                	xor    ebx,ebx
            strcpy(name, ((directory_t *)i->data)->name);
  10037f:	55                   	push   ebp
  100380:	e8 8b 5a 00 00       	call   105e10 <strcpy>
        dump_directorie(filesystem_get_directory(current, buffer), depth + 1, buffer);
  100385:	83 c4 10             	add    esp,0x10
  100388:	8b bc 24 b0 00 00 00 	mov    edi,DWORD PTR [esp+0xb0]
  10038f:	eb 10                	jmp    1003a1 <dump_directorie+0x121>
  100391:	8d b4 26 00 00 00 00 	lea    esi,[esi+eiz*1+0x0]
            current = current->parent;
  100398:	8b bf 88 00 00 00    	mov    edi,DWORD PTR [edi+0x88]
    for (int i = 0; path_read(path, i, buffer); i++) 
  10039e:	83 c3 01             	add    ebx,0x1
  1003a1:	83 ec 04             	sub    esp,0x4
  1003a4:	56                   	push   esi
  1003a5:	53                   	push   ebx
  1003a6:	55                   	push   ebp
  1003a7:	e8 74 7f 00 00       	call   108320 <path_read>
  1003ac:	83 c4 10             	add    esp,0x10
  1003af:	85 c0                	test   eax,eax
  1003b1:	74 7d                	je     100430 <dump_directorie+0x1b0>
        if (strcmp(buffer, "..") == 0)
  1003b3:	83 ec 08             	sub    esp,0x8
  1003b6:	68 a0 21 11 00       	push   0x1121a0
  1003bb:	56                   	push   esi
  1003bc:	e8 bf 57 00 00       	call   105b80 <strcmp>
  1003c1:	83 c4 10             	add    esp,0x10
  1003c4:	85 c0                	test   eax,eax
  1003c6:	74 d0                	je     100398 <dump_directorie+0x118>
        else if (strcmp(buffer, ".") == 0)
  1003c8:	83 ec 08             	sub    esp,0x8
  1003cb:	68 eb 1e 11 00       	push   0x111eeb
  1003d0:	56                   	push   esi
  1003d1:	e8 aa 57 00 00       	call   105b80 <strcmp>
  1003d6:	83 c4 10             	add    esp,0x10
  1003d9:	85 c0                	test   eax,eax
  1003db:	74 c1                	je     10039e <dump_directorie+0x11e>
            SLL_FOREARCH(i, current->directories)
  1003dd:	8b 87 84 00 00 00    	mov    eax,DWORD PTR [edi+0x84]
  1003e3:	8b 50 04             	mov    edx,DWORD PTR [eax+0x4]
  1003e6:	85 d2                	test   edx,edx
  1003e8:	74 b4                	je     10039e <dump_directorie+0x11e>
  1003ea:	89 5c 24 0c          	mov    DWORD PTR [esp+0xc],ebx
  1003ee:	89 ac 24 b8 00 00 00 	mov    DWORD PTR [esp+0xb8],ebp
  1003f5:	89 d3                	mov    ebx,edx
  1003f7:	89 f6                	mov    esi,esi
  1003f9:	8d bc 27 00 00 00 00 	lea    edi,[edi+eiz*1+0x0]
                directory_t *d = (directory_t *)i->data;
  100400:	8b 2b                	mov    ebp,DWORD PTR [ebx]
                if (strcmp(buffer, d->name) == 0)
  100402:	83 ec 08             	sub    esp,0x8
  100405:	55                   	push   ebp
  100406:	56                   	push   esi
  100407:	e8 74 57 00 00       	call   105b80 <strcmp>
            SLL_FOREARCH(i, current->directories)
  10040c:	8b 5b 04             	mov    ebx,DWORD PTR [ebx+0x4]
                if (strcmp(buffer, d->name) == 0)
  10040f:	83 c4 10             	add    esp,0x10
                    current = d;
  100412:	85 c0                	test   eax,eax
  100414:	0f 44 fd             	cmove  edi,ebp
            SLL_FOREARCH(i, current->directories)
  100417:	85 db                	test   ebx,ebx
  100419:	75 e5                	jne    100400 <dump_directorie+0x180>
  10041b:	8b 5c 24 0c          	mov    ebx,DWORD PTR [esp+0xc]
  10041f:	8b ac 24 b8 00 00 00 	mov    ebp,DWORD PTR [esp+0xb8]
  100426:	e9 73 ff ff ff       	jmp    10039e <dump_directorie+0x11e>
  10042b:	90                   	nop
  10042c:	8d 74 26 00          	lea    esi,[esi+eiz*1+0x0]
        dump_directorie(filesystem_get_directory(current, buffer), depth + 1, buffer);
  100430:	83 ec 04             	sub    esp,0x4
  100433:	55                   	push   ebp
  100434:	ff 74 24 10          	push   DWORD PTR [esp+0x10]
  100438:	57                   	push   edi
  100439:	e8 42 fe ff ff       	call   100280 <dump_directorie>
    for (size_t i = 0; directory_get_directories(current, buffer, i); i++)
  10043e:	83 44 24 14 01       	add    DWORD PTR [esp+0x14],0x1
  100443:	83 c4 10             	add    esp,0x10
  100446:	e9 a5 fe ff ff       	jmp    1002f0 <dump_directorie+0x70>
  10044b:	90                   	nop
  10044c:	8d 74 26 00          	lea    esi,[esi+eiz*1+0x0]
            strcpy(name, ((file_t *)i->data)->name);
  100450:	8b 00                	mov    eax,DWORD PTR [eax]
  100452:	83 ec 08             	sub    esp,0x8
        for (int y = 0; y < depth + 1; y++)
  100455:	31 ff                	xor    edi,edi
            strcpy(name, ((file_t *)i->data)->name);
  100457:	83 c0 0c             	add    eax,0xc
  10045a:	50                   	push   eax
  10045b:	55                   	push   ebp
  10045c:	e8 af 59 00 00       	call   105e10 <strcpy>
        for (int y = 0; y < depth + 1; y++)
  100461:	83 c4 10             	add    esp,0x10
  100464:	8b 84 24 b4 00 00 00 	mov    eax,DWORD PTR [esp+0xb4]
  10046b:	85 c0                	test   eax,eax
  10046d:	78 18                	js     100487 <dump_directorie+0x207>
  10046f:	90                   	nop
            printf("\t");
  100470:	83 ec 0c             	sub    esp,0xc
        for (int y = 0; y < depth + 1; y++)
  100473:	83 c7 01             	add    edi,0x1
            printf("\t");
  100476:	68 d6 1f 11 00       	push   0x111fd6
  10047b:	e8 f0 61 00 00       	call   106670 <printf>
        for (int y = 0; y < depth + 1; y++)
  100480:	83 c4 10             	add    esp,0x10
  100483:	39 f7                	cmp    edi,esi
  100485:	75 e9                	jne    100470 <dump_directorie+0x1f0>
        printf("%s\n", buffer);
  100487:	83 ec 08             	sub    esp,0x8
    for (size_t i = 0; (directory_get_files(current, buffer, i)); i++)
  10048a:	83 c3 01             	add    ebx,0x1
        printf("%s\n", buffer);
  10048d:	55                   	push   ebp
  10048e:	68 b5 1e 11 00       	push   0x111eb5
  100493:	e8 d8 61 00 00       	call   106670 <printf>
    for (size_t i = 0; (directory_get_files(current, buffer, i)); i++)
  100498:	83 c4 10             	add    esp,0x10
  10049b:	e9 92 fe ff ff       	jmp    100332 <dump_directorie+0xb2>

001004a0 <filesystem_dump>:
{
  1004a0:	55                   	push   ebp
  1004a1:	57                   	push   edi
  1004a2:	56                   	push   esi
  1004a3:	53                   	push   ebx
  1004a4:	81 ec b8 00 00 00    	sub    esp,0xb8
    char * buffer = malloc(PATH_FILE_NAME_SIZE);
  1004aa:	68 80 00 00 00       	push   0x80
  1004af:	e8 ec 6a 00 00       	call   106fa0 <malloc>
  1004b4:	89 44 24 18          	mov    DWORD PTR [esp+0x18],eax
    directory_t * current = relative ? relative : root;
  1004b8:	83 c4 10             	add    esp,0x10
  1004bb:	8b 8c 24 c0 00 00 00 	mov    ecx,DWORD PTR [esp+0xc0]
  1004c2:	8b 84 24 c0 00 00 00 	mov    eax,DWORD PTR [esp+0xc0]
  1004c9:	8d 6c 24 20          	lea    ebp,[esp+0x20]
  1004cd:	85 c9                	test   ecx,ecx
  1004cf:	0f 44 05 00 ae 23 00 	cmove  eax,DWORD PTR ds:0x23ae00
                    current = d;
  1004d6:	31 db                	xor    ebx,ebx
    directory_t * current = relative ? relative : root;
  1004d8:	89 84 24 c0 00 00 00 	mov    DWORD PTR [esp+0xc0],eax
  1004df:	89 c6                	mov    esi,eax
  1004e1:	eb 0e                	jmp    1004f1 <filesystem_dump+0x51>
  1004e3:	90                   	nop
  1004e4:	8d 74 26 00          	lea    esi,[esi+eiz*1+0x0]
            current = current->parent;
  1004e8:	8b b6 88 00 00 00    	mov    esi,DWORD PTR [esi+0x88]
    for (int i = 0; path_read(path, i, buffer); i++) 
  1004ee:	83 c3 01             	add    ebx,0x1
  1004f1:	83 ec 04             	sub    esp,0x4
  1004f4:	55                   	push   ebp
  1004f5:	53                   	push   ebx
  1004f6:	ff b4 24 d0 00 00 00 	push   DWORD PTR [esp+0xd0]
  1004fd:	e8 1e 7e 00 00       	call   108320 <path_read>
  100502:	83 c4 10             	add    esp,0x10
  100505:	85 c0                	test   eax,eax
  100507:	74 67                	je     100570 <filesystem_dump+0xd0>
        if (strcmp(buffer, "..") == 0)
  100509:	83 ec 08             	sub    esp,0x8
  10050c:	68 a0 21 11 00       	push   0x1121a0
  100511:	55                   	push   ebp
  100512:	e8 69 56 00 00       	call   105b80 <strcmp>
  100517:	83 c4 10             	add    esp,0x10
  10051a:	85 c0                	test   eax,eax
  10051c:	74 ca                	je     1004e8 <filesystem_dump+0x48>
        else if (strcmp(buffer, ".") == 0)
  10051e:	83 ec 08             	sub    esp,0x8
  100521:	68 eb 1e 11 00       	push   0x111eeb
  100526:	55                   	push   ebp
  100527:	e8 54 56 00 00       	call   105b80 <strcmp>
  10052c:	83 c4 10             	add    esp,0x10
  10052f:	85 c0                	test   eax,eax
  100531:	74 bb                	je     1004ee <filesystem_dump+0x4e>
            SLL_FOREARCH(i, current->directories)
  100533:	8b 86 84 00 00 00    	mov    eax,DWORD PTR [esi+0x84]
  100539:	8b 78 04             	mov    edi,DWORD PTR [eax+0x4]
  10053c:	85 ff                	test   edi,edi
  10053e:	74 ae                	je     1004ee <filesystem_dump+0x4e>
  100540:	89 5c 24 0c          	mov    DWORD PTR [esp+0xc],ebx
  100544:	8d 74 26 00          	lea    esi,[esi+eiz*1+0x0]
                directory_t *d = (directory_t *)i->data;
  100548:	8b 1f                	mov    ebx,DWORD PTR [edi]
                if (strcmp(buffer, d->name) == 0)
  10054a:	83 ec 08             	sub    esp,0x8
  10054d:	53                   	push   ebx
  10054e:	55                   	push   ebp
  10054f:	e8 2c 56 00 00       	call   105b80 <strcmp>
            SLL_FOREARCH(i, current->directories)
  100554:	8b 7f 04             	mov    edi,DWORD PTR [edi+0x4]
                if (strcmp(buffer, d->name) == 0)
  100557:	83 c4 10             	add    esp,0x10
                    current = d;
  10055a:	85 c0                	test   eax,eax
  10055c:	0f 44 f3             	cmove  esi,ebx
            SLL_FOREARCH(i, current->directories)
  10055f:	85 ff                	test   edi,edi
  100561:	75 e5                	jne    100548 <filesystem_dump+0xa8>
  100563:	8b 5c 24 0c          	mov    ebx,DWORD PTR [esp+0xc]
  100567:	eb 85                	jmp    1004ee <filesystem_dump+0x4e>
  100569:	8d b4 26 00 00 00 00 	lea    esi,[esi+eiz*1+0x0]
  100570:	89 b4 24 c0 00 00 00 	mov    DWORD PTR [esp+0xc0],esi
    printf("%s/\n", current->name);
  100577:	83 ec 08             	sub    esp,0x8
  10057a:	ff b4 24 c8 00 00 00 	push   DWORD PTR [esp+0xc8]
  100581:	68 a3 1e 11 00       	push   0x111ea3
  100586:	e8 e5 60 00 00       	call   106670 <printf>
  10058b:	83 c4 10             	add    esp,0x10
    for (size_t i = 0; directory_get_directories(current, buffer, i); i++)
  10058e:	c7 44 24 10 00 00 00 	mov    DWORD PTR [esp+0x10],0x0
  100595:	00 
    name[0] = '\0';
  100596:	8b 44 24 08          	mov    eax,DWORD PTR [esp+0x8]
    for (size_t i = 0; directory_get_directories(current, buffer, i); i++)
  10059a:	8b 4c 24 10          	mov    ecx,DWORD PTR [esp+0x10]
    name[0] = '\0';
  10059e:	c6 00 00             	mov    BYTE PTR [eax],0x0
    SLL_FOREARCH(i, directory->directories)
  1005a1:	8b 84 24 c0 00 00 00 	mov    eax,DWORD PTR [esp+0xc0]
    for (size_t i = 0; directory_get_directories(current, buffer, i); i++)
  1005a8:	89 ca                	mov    edx,ecx
    SLL_FOREARCH(i, directory->directories)
  1005aa:	8b 80 84 00 00 00    	mov    eax,DWORD PTR [eax+0x84]
  1005b0:	8b 40 04             	mov    eax,DWORD PTR [eax+0x4]
  1005b3:	85 c0                	test   eax,eax
  1005b5:	74 17                	je     1005ce <filesystem_dump+0x12e>
        if (index == 0)
  1005b7:	85 c9                	test   ecx,ecx
  1005b9:	75 09                	jne    1005c4 <filesystem_dump+0x124>
  1005bb:	eb 73                	jmp    100630 <filesystem_dump+0x190>
  1005bd:	8d 76 00             	lea    esi,[esi+0x0]
  1005c0:	85 d2                	test   edx,edx
  1005c2:	74 6c                	je     100630 <filesystem_dump+0x190>
    SLL_FOREARCH(i, directory->directories)
  1005c4:	8b 40 04             	mov    eax,DWORD PTR [eax+0x4]
        index--;
  1005c7:	83 ea 01             	sub    edx,0x1
    SLL_FOREARCH(i, directory->directories)
  1005ca:	85 c0                	test   eax,eax
  1005cc:	75 f2                	jne    1005c0 <filesystem_dump+0x120>
  1005ce:	8b 74 24 08          	mov    esi,DWORD PTR [esp+0x8]
  1005d2:	8b bc 24 c0 00 00 00 	mov    edi,DWORD PTR [esp+0xc0]
  1005d9:	31 db                	xor    ebx,ebx
    name[0] = '\0';
  1005db:	c6 06 00             	mov    BYTE PTR [esi],0x0
    SLL_FOREARCH(i, directory->files)
  1005de:	8b 87 80 00 00 00    	mov    eax,DWORD PTR [edi+0x80]
    for (size_t i = 0; (directory_get_files(current, buffer, i)); i++)
  1005e4:	89 da                	mov    edx,ebx
    SLL_FOREARCH(i, directory->files)
  1005e6:	8b 40 04             	mov    eax,DWORD PTR [eax+0x4]
  1005e9:	85 c0                	test   eax,eax
  1005eb:	74 25                	je     100612 <filesystem_dump+0x172>
        if (index == 0)
  1005ed:	85 db                	test   ebx,ebx
  1005ef:	75 17                	jne    100608 <filesystem_dump+0x168>
  1005f1:	e9 8a 01 00 00       	jmp    100780 <filesystem_dump+0x2e0>
  1005f6:	8d 76 00             	lea    esi,[esi+0x0]
  1005f9:	8d bc 27 00 00 00 00 	lea    edi,[edi+eiz*1+0x0]
  100600:	85 d2                	test   edx,edx
  100602:	0f 84 78 01 00 00    	je     100780 <filesystem_dump+0x2e0>
    SLL_FOREARCH(i, directory->files)
  100608:	8b 40 04             	mov    eax,DWORD PTR [eax+0x4]
        index--;
  10060b:	83 ea 01             	sub    edx,0x1
    SLL_FOREARCH(i, directory->files)
  10060e:	85 c0                	test   eax,eax
  100610:	75 ee                	jne    100600 <filesystem_dump+0x160>
    free(buffer);
  100612:	83 ec 0c             	sub    esp,0xc
  100615:	ff 74 24 14          	push   DWORD PTR [esp+0x14]
  100619:	e8 52 6e 00 00       	call   107470 <free>
}
  10061e:	81 c4 bc 00 00 00    	add    esp,0xbc
  100624:	5b                   	pop    ebx
  100625:	5e                   	pop    esi
  100626:	5f                   	pop    edi
  100627:	5d                   	pop    ebp
  100628:	c3                   	ret    
  100629:	8d b4 26 00 00 00 00 	lea    esi,[esi+eiz*1+0x0]
            strcpy(name, ((directory_t *)i->data)->name);
  100630:	83 ec 08             	sub    esp,0x8
  100633:	ff 30                	push   DWORD PTR [eax]
  100635:	31 f6                	xor    esi,esi
  100637:	ff 74 24 14          	push   DWORD PTR [esp+0x14]
  10063b:	e8 d0 57 00 00       	call   105e10 <strcpy>
  100640:	83 c4 10             	add    esp,0x10
  100643:	8b 9c 24 c0 00 00 00 	mov    ebx,DWORD PTR [esp+0xc0]
  10064a:	eb 0d                	jmp    100659 <filesystem_dump+0x1b9>
  10064c:	8d 74 26 00          	lea    esi,[esi+eiz*1+0x0]
            current = current->parent;
  100650:	8b 9b 88 00 00 00    	mov    ebx,DWORD PTR [ebx+0x88]
    for (int i = 0; path_read(path, i, buffer); i++) 
  100656:	83 c6 01             	add    esi,0x1
  100659:	83 ec 04             	sub    esp,0x4
  10065c:	55                   	push   ebp
  10065d:	56                   	push   esi
  10065e:	ff 74 24 14          	push   DWORD PTR [esp+0x14]
  100662:	e8 b9 7c 00 00       	call   108320 <path_read>
  100667:	83 c4 10             	add    esp,0x10
  10066a:	85 c0                	test   eax,eax
  10066c:	74 6a                	je     1006d8 <filesystem_dump+0x238>
        if (strcmp(buffer, "..") == 0)
  10066e:	83 ec 08             	sub    esp,0x8
  100671:	68 a0 21 11 00       	push   0x1121a0
  100676:	55                   	push   ebp
  100677:	e8 04 55 00 00       	call   105b80 <strcmp>
  10067c:	83 c4 10             	add    esp,0x10
  10067f:	85 c0                	test   eax,eax
  100681:	74 cd                	je     100650 <filesystem_dump+0x1b0>
        else if (strcmp(buffer, ".") == 0)
  100683:	83 ec 08             	sub    esp,0x8
  100686:	68 eb 1e 11 00       	push   0x111eeb
  10068b:	55                   	push   ebp
  10068c:	e8 ef 54 00 00       	call   105b80 <strcmp>
  100691:	83 c4 10             	add    esp,0x10
  100694:	85 c0                	test   eax,eax
  100696:	74 be                	je     100656 <filesystem_dump+0x1b6>
            SLL_FOREARCH(i, current->directories)
  100698:	8b 83 84 00 00 00    	mov    eax,DWORD PTR [ebx+0x84]
  10069e:	8b 78 04             	mov    edi,DWORD PTR [eax+0x4]
  1006a1:	85 ff                	test   edi,edi
  1006a3:	74 b1                	je     100656 <filesystem_dump+0x1b6>
  1006a5:	89 74 24 0c          	mov    DWORD PTR [esp+0xc],esi
  1006a9:	89 de                	mov    esi,ebx
  1006ab:	90                   	nop
  1006ac:	8d 74 26 00          	lea    esi,[esi+eiz*1+0x0]
                directory_t *d = (directory_t *)i->data;
  1006b0:	8b 1f                	mov    ebx,DWORD PTR [edi]
                if (strcmp(buffer, d->name) == 0)
  1006b2:	83 ec 08             	sub    esp,0x8
  1006b5:	53                   	push   ebx
  1006b6:	55                   	push   ebp
  1006b7:	e8 c4 54 00 00       	call   105b80 <strcmp>
            SLL_FOREARCH(i, current->directories)
  1006bc:	8b 7f 04             	mov    edi,DWORD PTR [edi+0x4]
                if (strcmp(buffer, d->name) == 0)
  1006bf:	83 c4 10             	add    esp,0x10
                    current = d;
  1006c2:	85 c0                	test   eax,eax
  1006c4:	0f 44 f3             	cmove  esi,ebx
            SLL_FOREARCH(i, current->directories)
  1006c7:	85 ff                	test   edi,edi
  1006c9:	75 e5                	jne    1006b0 <filesystem_dump+0x210>
  1006cb:	89 f3                	mov    ebx,esi
  1006cd:	8b 74 24 0c          	mov    esi,DWORD PTR [esp+0xc]
  1006d1:	eb 83                	jmp    100656 <filesystem_dump+0x1b6>
  1006d3:	90                   	nop
  1006d4:	8d 74 26 00          	lea    esi,[esi+eiz*1+0x0]
        printf("\t");
  1006d8:	83 ec 0c             	sub    esp,0xc
  1006db:	68 d6 1f 11 00       	push   0x111fd6
  1006e0:	e8 8b 5f 00 00       	call   106670 <printf>
    printf("%s/\n", current->name);
  1006e5:	58                   	pop    eax
  1006e6:	5a                   	pop    edx
  1006e7:	53                   	push   ebx
  1006e8:	68 a3 1e 11 00       	push   0x111ea3
  1006ed:	e8 7e 5f 00 00       	call   106670 <printf>
  1006f2:	83 c4 10             	add    esp,0x10
    for (size_t i = 0; directory_get_directories(current, buffer, i); i++)
  1006f5:	89 5c 24 0c          	mov    DWORD PTR [esp+0xc],ebx
  1006f9:	c7 44 24 14 00 00 00 	mov    DWORD PTR [esp+0x14],0x0
  100700:	00 
  100701:	8b 5c 24 08          	mov    ebx,DWORD PTR [esp+0x8]
    SLL_FOREARCH(i, directory->directories)
  100705:	8b 44 24 0c          	mov    eax,DWORD PTR [esp+0xc]
    name[0] = '\0';
  100709:	c6 03 00             	mov    BYTE PTR [ebx],0x0
    for (size_t i = 0; directory_get_directories(current, buffer, i); i++)
  10070c:	8b 4c 24 14          	mov    ecx,DWORD PTR [esp+0x14]
    SLL_FOREARCH(i, directory->directories)
  100710:	8b 80 84 00 00 00    	mov    eax,DWORD PTR [eax+0x84]
    for (size_t i = 0; directory_get_directories(current, buffer, i); i++)
  100716:	89 ca                	mov    edx,ecx
    SLL_FOREARCH(i, directory->directories)
  100718:	8b 40 04             	mov    eax,DWORD PTR [eax+0x4]
  10071b:	85 c0                	test   eax,eax
  10071d:	74 23                	je     100742 <filesystem_dump+0x2a2>
        if (index == 0)
  10071f:	85 c9                	test   ecx,ecx
  100721:	75 15                	jne    100738 <filesystem_dump+0x298>
  100723:	e9 d8 00 00 00       	jmp    100800 <filesystem_dump+0x360>
  100728:	90                   	nop
  100729:	8d b4 26 00 00 00 00 	lea    esi,[esi+eiz*1+0x0]
  100730:	85 d2                	test   edx,edx
  100732:	0f 84 c8 00 00 00    	je     100800 <filesystem_dump+0x360>
    SLL_FOREARCH(i, directory->directories)
  100738:	8b 40 04             	mov    eax,DWORD PTR [eax+0x4]
        index--;
  10073b:	83 ea 01             	sub    edx,0x1
    SLL_FOREARCH(i, directory->directories)
  10073e:	85 c0                	test   eax,eax
  100740:	75 ee                	jne    100730 <filesystem_dump+0x290>
  100742:	8b 5c 24 0c          	mov    ebx,DWORD PTR [esp+0xc]
  100746:	8b 7c 24 08          	mov    edi,DWORD PTR [esp+0x8]
  10074a:	31 f6                	xor    esi,esi
    name[0] = '\0';
  10074c:	c6 07 00             	mov    BYTE PTR [edi],0x0
    SLL_FOREARCH(i, directory->files)
  10074f:	8b 83 80 00 00 00    	mov    eax,DWORD PTR [ebx+0x80]
    for (size_t i = 0; (directory_get_files(current, buffer, i)); i++)
  100755:	89 f2                	mov    edx,esi
    SLL_FOREARCH(i, directory->files)
  100757:	8b 40 04             	mov    eax,DWORD PTR [eax+0x4]
  10075a:	85 c0                	test   eax,eax
  10075c:	74 18                	je     100776 <filesystem_dump+0x2d6>
        if (index == 0)
  10075e:	85 f6                	test   esi,esi
  100760:	75 0a                	jne    10076c <filesystem_dump+0x2cc>
  100762:	eb 54                	jmp    1007b8 <filesystem_dump+0x318>
  100764:	8d 74 26 00          	lea    esi,[esi+eiz*1+0x0]
  100768:	85 d2                	test   edx,edx
  10076a:	74 4c                	je     1007b8 <filesystem_dump+0x318>
    SLL_FOREARCH(i, directory->files)
  10076c:	8b 40 04             	mov    eax,DWORD PTR [eax+0x4]
        index--;
  10076f:	83 ea 01             	sub    edx,0x1
    SLL_FOREARCH(i, directory->files)
  100772:	85 c0                	test   eax,eax
  100774:	75 f2                	jne    100768 <filesystem_dump+0x2c8>
    for (size_t i = 0; directory_get_directories(current, buffer, i); i++)
  100776:	83 44 24 10 01       	add    DWORD PTR [esp+0x10],0x1
  10077b:	e9 16 fe ff ff       	jmp    100596 <filesystem_dump+0xf6>
            strcpy(name, ((file_t *)i->data)->name);
  100780:	8b 00                	mov    eax,DWORD PTR [eax]
  100782:	83 ec 08             	sub    esp,0x8
    for (size_t i = 0; (directory_get_files(current, buffer, i)); i++)
  100785:	83 c3 01             	add    ebx,0x1
            strcpy(name, ((file_t *)i->data)->name);
  100788:	83 c0 0c             	add    eax,0xc
  10078b:	50                   	push   eax
  10078c:	56                   	push   esi
  10078d:	e8 7e 56 00 00       	call   105e10 <strcpy>
            printf("\t");
  100792:	c7 04 24 d6 1f 11 00 	mov    DWORD PTR [esp],0x111fd6
  100799:	e8 d2 5e 00 00       	call   106670 <printf>
        printf("%s\n", buffer);
  10079e:	58                   	pop    eax
  10079f:	5a                   	pop    edx
  1007a0:	56                   	push   esi
  1007a1:	68 b5 1e 11 00       	push   0x111eb5
  1007a6:	e8 c5 5e 00 00       	call   106670 <printf>
    for (size_t i = 0; (directory_get_files(current, buffer, i)); i++)
  1007ab:	83 c4 10             	add    esp,0x10
  1007ae:	e9 28 fe ff ff       	jmp    1005db <filesystem_dump+0x13b>
  1007b3:	90                   	nop
  1007b4:	8d 74 26 00          	lea    esi,[esi+eiz*1+0x0]
            strcpy(name, ((file_t *)i->data)->name);
  1007b8:	8b 00                	mov    eax,DWORD PTR [eax]
  1007ba:	83 ec 08             	sub    esp,0x8
    for (size_t i = 0; (directory_get_files(current, buffer, i)); i++)
  1007bd:	83 c6 01             	add    esi,0x1
            strcpy(name, ((file_t *)i->data)->name);
  1007c0:	83 c0 0c             	add    eax,0xc
  1007c3:	50                   	push   eax
  1007c4:	57                   	push   edi
  1007c5:	e8 46 56 00 00       	call   105e10 <strcpy>
            printf("\t");
  1007ca:	c7 04 24 d6 1f 11 00 	mov    DWORD PTR [esp],0x111fd6
  1007d1:	e8 9a 5e 00 00       	call   106670 <printf>
  1007d6:	c7 04 24 d6 1f 11 00 	mov    DWORD PTR [esp],0x111fd6
  1007dd:	e8 8e 5e 00 00       	call   106670 <printf>
        printf("%s\n", buffer);
  1007e2:	59                   	pop    ecx
  1007e3:	58                   	pop    eax
  1007e4:	57                   	push   edi
  1007e5:	68 b5 1e 11 00       	push   0x111eb5
  1007ea:	e8 81 5e 00 00       	call   106670 <printf>
    for (size_t i = 0; (directory_get_files(current, buffer, i)); i++)
  1007ef:	83 c4 10             	add    esp,0x10
  1007f2:	e9 55 ff ff ff       	jmp    10074c <filesystem_dump+0x2ac>
  1007f7:	89 f6                	mov    esi,esi
  1007f9:	8d bc 27 00 00 00 00 	lea    edi,[edi+eiz*1+0x0]
            strcpy(name, ((directory_t *)i->data)->name);
  100800:	83 ec 08             	sub    esp,0x8
  100803:	ff 30                	push   DWORD PTR [eax]
  100805:	31 f6                	xor    esi,esi
  100807:	53                   	push   ebx
  100808:	e8 03 56 00 00       	call   105e10 <strcpy>
  10080d:	83 c4 10             	add    esp,0x10
  100810:	8b 7c 24 0c          	mov    edi,DWORD PTR [esp+0xc]
  100814:	eb 13                	jmp    100829 <filesystem_dump+0x389>
  100816:	8d 76 00             	lea    esi,[esi+0x0]
  100819:	8d bc 27 00 00 00 00 	lea    edi,[edi+eiz*1+0x0]
            current = current->parent;
  100820:	8b bf 88 00 00 00    	mov    edi,DWORD PTR [edi+0x88]
    for (int i = 0; path_read(path, i, buffer); i++) 
  100826:	83 c6 01             	add    esi,0x1
  100829:	83 ec 04             	sub    esp,0x4
  10082c:	55                   	push   ebp
  10082d:	56                   	push   esi
  10082e:	53                   	push   ebx
  10082f:	e8 ec 7a 00 00       	call   108320 <path_read>
  100834:	83 c4 10             	add    esp,0x10
  100837:	85 c0                	test   eax,eax
  100839:	74 75                	je     1008b0 <filesystem_dump+0x410>
        if (strcmp(buffer, "..") == 0)
  10083b:	83 ec 08             	sub    esp,0x8
  10083e:	68 a0 21 11 00       	push   0x1121a0
  100843:	55                   	push   ebp
  100844:	e8 37 53 00 00       	call   105b80 <strcmp>
  100849:	83 c4 10             	add    esp,0x10
  10084c:	85 c0                	test   eax,eax
  10084e:	74 d0                	je     100820 <filesystem_dump+0x380>
        else if (strcmp(buffer, ".") == 0)
  100850:	83 ec 08             	sub    esp,0x8
  100853:	68 eb 1e 11 00       	push   0x111eeb
  100858:	55                   	push   ebp
  100859:	e8 22 53 00 00       	call   105b80 <strcmp>
  10085e:	83 c4 10             	add    esp,0x10
  100861:	85 c0                	test   eax,eax
  100863:	74 c1                	je     100826 <filesystem_dump+0x386>
            SLL_FOREARCH(i, current->directories)
  100865:	8b 87 84 00 00 00    	mov    eax,DWORD PTR [edi+0x84]
  10086b:	8b 50 04             	mov    edx,DWORD PTR [eax+0x4]
  10086e:	85 d2                	test   edx,edx
  100870:	74 b4                	je     100826 <filesystem_dump+0x386>
  100872:	89 5c 24 18          	mov    DWORD PTR [esp+0x18],ebx
  100876:	89 74 24 1c          	mov    DWORD PTR [esp+0x1c],esi
  10087a:	89 d3                	mov    ebx,edx
  10087c:	89 fe                	mov    esi,edi
  10087e:	66 90                	xchg   ax,ax
                directory_t *d = (directory_t *)i->data;
  100880:	8b 3b                	mov    edi,DWORD PTR [ebx]
                if (strcmp(buffer, d->name) == 0)
  100882:	83 ec 08             	sub    esp,0x8
  100885:	57                   	push   edi
  100886:	55                   	push   ebp
  100887:	e8 f4 52 00 00       	call   105b80 <strcmp>
            SLL_FOREARCH(i, current->directories)
  10088c:	8b 5b 04             	mov    ebx,DWORD PTR [ebx+0x4]
                if (strcmp(buffer, d->name) == 0)
  10088f:	83 c4 10             	add    esp,0x10
                    current = d;
  100892:	85 c0                	test   eax,eax
  100894:	0f 44 f7             	cmove  esi,edi
            SLL_FOREARCH(i, current->directories)
  100897:	85 db                	test   ebx,ebx
  100899:	75 e5                	jne    100880 <filesystem_dump+0x3e0>
  10089b:	89 f7                	mov    edi,esi
  10089d:	8b 5c 24 18          	mov    ebx,DWORD PTR [esp+0x18]
  1008a1:	8b 74 24 1c          	mov    esi,DWORD PTR [esp+0x1c]
  1008a5:	e9 7c ff ff ff       	jmp    100826 <filesystem_dump+0x386>
  1008aa:	8d b6 00 00 00 00    	lea    esi,[esi+0x0]
        dump_directorie(filesystem_get_directory(current, buffer), depth + 1, buffer);
  1008b0:	83 ec 04             	sub    esp,0x4
  1008b3:	53                   	push   ebx
  1008b4:	6a 02                	push   0x2
  1008b6:	57                   	push   edi
  1008b7:	e8 c4 f9 ff ff       	call   100280 <dump_directorie>
    for (size_t i = 0; directory_get_directories(current, buffer, i); i++)
  1008bc:	83 44 24 24 01       	add    DWORD PTR [esp+0x24],0x1
  1008c1:	83 c4 10             	add    esp,0x10
  1008c4:	e9 3c fe ff ff       	jmp    100705 <filesystem_dump+0x265>
  1008c9:	8d b4 26 00 00 00 00 	lea    esi,[esi+eiz*1+0x0]

001008d0 <alloc_directorie>:
{
  1008d0:	53                   	push   ebx
  1008d1:	83 ec 14             	sub    esp,0x14
    directory_t *dir = MALLOC(directory_t);
  1008d4:	68 8c 00 00 00       	push   0x8c
  1008d9:	e8 c2 66 00 00       	call   106fa0 <malloc>
    strncpy((char *)&dir->name, name, PATH_FILE_NAME_SIZE);
  1008de:	83 c4 0c             	add    esp,0xc
    dir->name[0] = '\0';
  1008e1:	c6 00 00             	mov    BYTE PTR [eax],0x0
    directory_t *dir = MALLOC(directory_t);
  1008e4:	89 c3                	mov    ebx,eax
    strncpy((char *)&dir->name, name, PATH_FILE_NAME_SIZE);
  1008e6:	68 80 00 00 00       	push   0x80
  1008eb:	ff 74 24 18          	push   DWORD PTR [esp+0x18]
  1008ef:	50                   	push   eax
  1008f0:	e8 4b 55 00 00       	call   105e40 <strncpy>
    dir->directories = sll_new();
  1008f5:	e8 e6 72 00 00       	call   107be0 <sll_new>
  1008fa:	89 83 84 00 00 00    	mov    DWORD PTR [ebx+0x84],eax
    dir->files = sll_new();
  100900:	e8 db 72 00 00       	call   107be0 <sll_new>
  100905:	89 83 80 00 00 00    	mov    DWORD PTR [ebx+0x80],eax
}
  10090b:	83 c4 18             	add    esp,0x18
  10090e:	89 d8                	mov    eax,ebx
  100910:	5b                   	pop    ebx
  100911:	c3                   	ret    
  100912:	8d b4 26 00 00 00 00 	lea    esi,[esi+eiz*1+0x0]
  100919:	8d bc 27 00 00 00 00 	lea    edi,[edi+eiz*1+0x0]

00100920 <directory_create>:
{
  100920:	55                   	push   ebp
  100921:	57                   	push   edi
  100922:	56                   	push   esi
  100923:	53                   	push   ebx
  100924:	81 ec 28 01 00 00    	sub    esp,0x128
  10092a:	8b b4 24 40 01 00 00 	mov    esi,DWORD PTR [esp+0x140]
  100931:	8b 9c 24 3c 01 00 00 	mov    ebx,DWORD PTR [esp+0x13c]
    char *dir_path = malloc(strlen(path));
  100938:	56                   	push   esi
  100939:	e8 82 57 00 00       	call   1060c0 <strlen>
  10093e:	89 04 24             	mov    DWORD PTR [esp],eax
  100941:	e8 5a 66 00 00       	call   106fa0 <malloc>
    if (path_split(path, dir_path, dir_name))
  100946:	83 c4 0c             	add    esp,0xc
    char *dir_path = malloc(strlen(path));
  100949:	89 c5                	mov    ebp,eax
    if (path_split(path, dir_path, dir_name))
  10094b:	8d 44 24 14          	lea    eax,[esp+0x14]
  10094f:	50                   	push   eax
  100950:	55                   	push   ebp
  100951:	56                   	push   esi
  100952:	e8 39 7b 00 00       	call   108490 <path_split>
  100957:	83 c4 10             	add    esp,0x10
  10095a:	85 c0                	test   eax,eax
  10095c:	89 c6                	mov    esi,eax
  10095e:	75 20                	jne    100980 <directory_create+0x60>
    free(dir_path);
  100960:	83 ec 0c             	sub    esp,0xc
  100963:	55                   	push   ebp
  100964:	e8 07 6b 00 00       	call   107470 <free>
}
  100969:	81 c4 2c 01 00 00    	add    esp,0x12c
  10096f:	89 f0                	mov    eax,esi
  100971:	5b                   	pop    ebx
  100972:	5e                   	pop    esi
  100973:	5f                   	pop    edi
  100974:	5d                   	pop    ebp
  100975:	c3                   	ret    
  100976:	8d 76 00             	lea    esi,[esi+0x0]
  100979:	8d bc 27 00 00 00 00 	lea    edi,[edi+eiz*1+0x0]
    directory_t * current = relative ? relative : root;
  100980:	85 db                	test   ebx,ebx
  100982:	8d bc 24 90 00 00 00 	lea    edi,[esp+0x90]
  100989:	0f 44 1d 00 ae 23 00 	cmove  ebx,DWORD PTR ds:0x23ae00
                    current = d;
  100990:	31 f6                	xor    esi,esi
  100992:	eb 0d                	jmp    1009a1 <directory_create+0x81>
  100994:	8d 74 26 00          	lea    esi,[esi+eiz*1+0x0]
            current = current->parent;
  100998:	8b 9b 88 00 00 00    	mov    ebx,DWORD PTR [ebx+0x88]
    for (int i = 0; path_read(path, i, buffer); i++) 
  10099e:	83 c6 01             	add    esi,0x1
  1009a1:	83 ec 04             	sub    esp,0x4
  1009a4:	57                   	push   edi
  1009a5:	56                   	push   esi
  1009a6:	55                   	push   ebp
  1009a7:	e8 74 79 00 00       	call   108320 <path_read>
  1009ac:	83 c4 10             	add    esp,0x10
  1009af:	85 c0                	test   eax,eax
  1009b1:	74 7d                	je     100a30 <directory_create+0x110>
        if (strcmp(buffer, "..") == 0)
  1009b3:	83 ec 08             	sub    esp,0x8
  1009b6:	68 a0 21 11 00       	push   0x1121a0
  1009bb:	57                   	push   edi
  1009bc:	e8 bf 51 00 00       	call   105b80 <strcmp>
  1009c1:	83 c4 10             	add    esp,0x10
  1009c4:	85 c0                	test   eax,eax
  1009c6:	74 d0                	je     100998 <directory_create+0x78>
        else if (strcmp(buffer, ".") == 0)
  1009c8:	83 ec 08             	sub    esp,0x8
  1009cb:	68 eb 1e 11 00       	push   0x111eeb
  1009d0:	57                   	push   edi
  1009d1:	e8 aa 51 00 00       	call   105b80 <strcmp>
  1009d6:	83 c4 10             	add    esp,0x10
  1009d9:	85 c0                	test   eax,eax
  1009db:	74 c1                	je     10099e <directory_create+0x7e>
            SLL_FOREARCH(i, current->directories)
  1009dd:	8b 83 84 00 00 00    	mov    eax,DWORD PTR [ebx+0x84]
  1009e3:	8b 50 04             	mov    edx,DWORD PTR [eax+0x4]
  1009e6:	85 d2                	test   edx,edx
  1009e8:	74 b4                	je     10099e <directory_create+0x7e>
  1009ea:	89 74 24 0c          	mov    DWORD PTR [esp+0xc],esi
  1009ee:	89 6c 24 08          	mov    DWORD PTR [esp+0x8],ebp
  1009f2:	89 de                	mov    esi,ebx
  1009f4:	89 d3                	mov    ebx,edx
  1009f6:	8d 76 00             	lea    esi,[esi+0x0]
  1009f9:	8d bc 27 00 00 00 00 	lea    edi,[edi+eiz*1+0x0]
                directory_t *d = (directory_t *)i->data;
  100a00:	8b 2b                	mov    ebp,DWORD PTR [ebx]
                if (strcmp(buffer, d->name) == 0)
  100a02:	83 ec 08             	sub    esp,0x8
  100a05:	55                   	push   ebp
  100a06:	57                   	push   edi
  100a07:	e8 74 51 00 00       	call   105b80 <strcmp>
            SLL_FOREARCH(i, current->directories)
  100a0c:	8b 5b 04             	mov    ebx,DWORD PTR [ebx+0x4]
                if (strcmp(buffer, d->name) == 0)
  100a0f:	83 c4 10             	add    esp,0x10
                    current = d;
  100a12:	85 c0                	test   eax,eax
  100a14:	0f 44 f5             	cmove  esi,ebp
            SLL_FOREARCH(i, current->directories)
  100a17:	85 db                	test   ebx,ebx
  100a19:	75 e5                	jne    100a00 <directory_create+0xe0>
  100a1b:	89 f3                	mov    ebx,esi
  100a1d:	8b 6c 24 08          	mov    ebp,DWORD PTR [esp+0x8]
  100a21:	8b 74 24 0c          	mov    esi,DWORD PTR [esp+0xc]
  100a25:	e9 74 ff ff ff       	jmp    10099e <directory_create+0x7e>
  100a2a:	8d b6 00 00 00 00    	lea    esi,[esi+0x0]
    directory_t *dir = MALLOC(directory_t);
  100a30:	83 ec 0c             	sub    esp,0xc
  100a33:	68 8c 00 00 00       	push   0x8c
  100a38:	e8 63 65 00 00       	call   106fa0 <malloc>
    strncpy((char *)&dir->name, name, PATH_FILE_NAME_SIZE);
  100a3d:	83 c4 0c             	add    esp,0xc
    dir->name[0] = '\0';
  100a40:	c6 00 00             	mov    BYTE PTR [eax],0x0
    directory_t *dir = MALLOC(directory_t);
  100a43:	89 c6                	mov    esi,eax
    strncpy((char *)&dir->name, name, PATH_FILE_NAME_SIZE);
  100a45:	68 80 00 00 00       	push   0x80
  100a4a:	8d 44 24 18          	lea    eax,[esp+0x18]
  100a4e:	50                   	push   eax
  100a4f:	56                   	push   esi
  100a50:	e8 eb 53 00 00       	call   105e40 <strncpy>
    dir->directories = sll_new();
  100a55:	e8 86 71 00 00       	call   107be0 <sll_new>
  100a5a:	89 86 84 00 00 00    	mov    DWORD PTR [esi+0x84],eax
    dir->files = sll_new();
  100a60:	e8 7b 71 00 00       	call   107be0 <sll_new>
        dir->parent = parent;
  100a65:	89 9e 88 00 00 00    	mov    DWORD PTR [esi+0x88],ebx
    dir->files = sll_new();
  100a6b:	89 86 80 00 00 00    	mov    DWORD PTR [esi+0x80],eax
        sll_add((u32)dir, parent->directories);
  100a71:	58                   	pop    eax
  100a72:	5a                   	pop    edx
  100a73:	ff b3 84 00 00 00    	push   DWORD PTR [ebx+0x84]
  100a79:	56                   	push   esi
  100a7a:	be 01 00 00 00       	mov    esi,0x1
  100a7f:	e8 cc 71 00 00       	call   107c50 <sll_add>
  100a84:	83 c4 10             	add    esp,0x10
  100a87:	e9 d4 fe ff ff       	jmp    100960 <directory_create+0x40>
  100a8c:	8d 74 26 00          	lea    esi,[esi+eiz*1+0x0]

00100a90 <directory_delete>:
{
  100a90:	83 ec 18             	sub    esp,0x18
    STUB(relative, path, recursive);
  100a93:	0f b6 44 24 24       	movzx  eax,BYTE PTR [esp+0x24]
  100a98:	50                   	push   eax
  100a99:	ff 74 24 24          	push   DWORD PTR [esp+0x24]
  100a9d:	ff 74 24 24          	push   DWORD PTR [esp+0x24]
  100aa1:	68 20 1d 11 00       	push   0x111d20
  100aa6:	68 a8 1e 11 00       	push   0x111ea8
  100aab:	e8 c0 5b 00 00       	call   106670 <printf>
}
  100ab0:	b8 01 00 00 00       	mov    eax,0x1
  100ab5:	83 c4 2c             	add    esp,0x2c
  100ab8:	c3                   	ret    
  100ab9:	8d b4 26 00 00 00 00 	lea    esi,[esi+eiz*1+0x0]

00100ac0 <directory_existe>:
{
  100ac0:	55                   	push   ebp
  100ac1:	57                   	push   edi
  100ac2:	56                   	push   esi
  100ac3:	53                   	push   ebx
  100ac4:	81 ec 9c 00 00 00    	sub    esp,0x9c
  100aca:	8b 9c 24 b0 00 00 00 	mov    ebx,DWORD PTR [esp+0xb0]
  100ad1:	8d 7c 24 10          	lea    edi,[esp+0x10]
    directory_t * current = relative ? relative : root;
  100ad5:	85 db                	test   ebx,ebx
  100ad7:	0f 44 1d 00 ae 23 00 	cmove  ebx,DWORD PTR ds:0x23ae00
                    current = d;
  100ade:	31 f6                	xor    esi,esi
  100ae0:	eb 0f                	jmp    100af1 <directory_existe+0x31>
  100ae2:	8d b6 00 00 00 00    	lea    esi,[esi+0x0]
            current = current->parent;
  100ae8:	8b 9b 88 00 00 00    	mov    ebx,DWORD PTR [ebx+0x88]
    for (int i = 0; path_read(path, i, buffer); i++) 
  100aee:	83 c6 01             	add    esi,0x1
  100af1:	83 ec 04             	sub    esp,0x4
  100af4:	57                   	push   edi
  100af5:	56                   	push   esi
  100af6:	ff b4 24 c0 00 00 00 	push   DWORD PTR [esp+0xc0]
  100afd:	e8 1e 78 00 00       	call   108320 <path_read>
  100b02:	83 c4 10             	add    esp,0x10
  100b05:	85 c0                	test   eax,eax
  100b07:	74 67                	je     100b70 <directory_existe+0xb0>
        if (strcmp(buffer, "..") == 0)
  100b09:	83 ec 08             	sub    esp,0x8
  100b0c:	68 a0 21 11 00       	push   0x1121a0
  100b11:	57                   	push   edi
  100b12:	e8 69 50 00 00       	call   105b80 <strcmp>
  100b17:	83 c4 10             	add    esp,0x10
  100b1a:	85 c0                	test   eax,eax
  100b1c:	74 ca                	je     100ae8 <directory_existe+0x28>
        else if (strcmp(buffer, ".") == 0)
  100b1e:	83 ec 08             	sub    esp,0x8
  100b21:	68 eb 1e 11 00       	push   0x111eeb
  100b26:	57                   	push   edi
  100b27:	e8 54 50 00 00       	call   105b80 <strcmp>
  100b2c:	83 c4 10             	add    esp,0x10
  100b2f:	85 c0                	test   eax,eax
  100b31:	74 bb                	je     100aee <directory_existe+0x2e>
            SLL_FOREARCH(i, current->directories)
  100b33:	8b 83 84 00 00 00    	mov    eax,DWORD PTR [ebx+0x84]
  100b39:	8b 68 04             	mov    ebp,DWORD PTR [eax+0x4]
  100b3c:	85 ed                	test   ebp,ebp
  100b3e:	74 ae                	je     100aee <directory_existe+0x2e>
                directory_t *d = (directory_t *)i->data;
  100b40:	8b 4d 00             	mov    ecx,DWORD PTR [ebp+0x0]
                if (strcmp(buffer, d->name) == 0)
  100b43:	83 ec 08             	sub    esp,0x8
  100b46:	51                   	push   ecx
  100b47:	89 4c 24 18          	mov    DWORD PTR [esp+0x18],ecx
  100b4b:	57                   	push   edi
  100b4c:	e8 2f 50 00 00       	call   105b80 <strcmp>
  100b51:	83 c4 10             	add    esp,0x10
                    current = d;
  100b54:	8b 4c 24 0c          	mov    ecx,DWORD PTR [esp+0xc]
            SLL_FOREARCH(i, current->directories)
  100b58:	8b 6d 04             	mov    ebp,DWORD PTR [ebp+0x4]
                    current = d;
  100b5b:	85 c0                	test   eax,eax
  100b5d:	0f 44 d9             	cmove  ebx,ecx
            SLL_FOREARCH(i, current->directories)
  100b60:	85 ed                	test   ebp,ebp
  100b62:	75 dc                	jne    100b40 <directory_existe+0x80>
  100b64:	eb 88                	jmp    100aee <directory_existe+0x2e>
  100b66:	8d 76 00             	lea    esi,[esi+0x0]
  100b69:	8d bc 27 00 00 00 00 	lea    edi,[edi+eiz*1+0x0]
    if (filesystem_get_directory(relative, path) != NULL)
  100b70:	31 c0                	xor    eax,eax
  100b72:	85 db                	test   ebx,ebx
  100b74:	0f 95 c0             	setne  al
}
  100b77:	81 c4 9c 00 00 00    	add    esp,0x9c
  100b7d:	5b                   	pop    ebx
  100b7e:	5e                   	pop    esi
  100b7f:	5f                   	pop    edi
  100b80:	5d                   	pop    ebp
  100b81:	c3                   	ret    
  100b82:	8d b4 26 00 00 00 00 	lea    esi,[esi+eiz*1+0x0]
  100b89:	8d bc 27 00 00 00 00 	lea    edi,[edi+eiz*1+0x0]

00100b90 <directory_copy>:
{
  100b90:	83 ec 14             	sub    esp,0x14
    STUB(relative_s, source, relative_d, destination);
  100b93:	ff 74 24 24          	push   DWORD PTR [esp+0x24]
  100b97:	ff 74 24 24          	push   DWORD PTR [esp+0x24]
  100b9b:	ff 74 24 24          	push   DWORD PTR [esp+0x24]
  100b9f:	ff 74 24 24          	push   DWORD PTR [esp+0x24]
  100ba3:	68 10 1d 11 00       	push   0x111d10
  100ba8:	68 a8 1e 11 00       	push   0x111ea8
  100bad:	e8 be 5a 00 00       	call   106670 <printf>
}
  100bb2:	b8 01 00 00 00       	mov    eax,0x1
  100bb7:	83 c4 2c             	add    esp,0x2c
  100bba:	c3                   	ret    
  100bbb:	90                   	nop
  100bbc:	8d 74 26 00          	lea    esi,[esi+eiz*1+0x0]

00100bc0 <directory_move>:
{
  100bc0:	83 ec 14             	sub    esp,0x14
    STUB(relative_s, source, relative_d, destination);
  100bc3:	ff 74 24 24          	push   DWORD PTR [esp+0x24]
  100bc7:	ff 74 24 24          	push   DWORD PTR [esp+0x24]
  100bcb:	ff 74 24 24          	push   DWORD PTR [esp+0x24]
  100bcf:	ff 74 24 24          	push   DWORD PTR [esp+0x24]
  100bd3:	68 00 1d 11 00       	push   0x111d00
  100bd8:	68 a8 1e 11 00       	push   0x111ea8
  100bdd:	e8 8e 5a 00 00       	call   106670 <printf>
}
  100be2:	b8 01 00 00 00       	mov    eax,0x1
  100be7:	83 c4 2c             	add    esp,0x2c
  100bea:	c3                   	ret    
  100beb:	90                   	nop
  100bec:	8d 74 26 00          	lea    esi,[esi+eiz*1+0x0]

00100bf0 <directory_open>:
{
  100bf0:	55                   	push   ebp
  100bf1:	57                   	push   edi
  100bf2:	56                   	push   esi
  100bf3:	53                   	push   ebx
  100bf4:	81 ec 9c 00 00 00    	sub    esp,0x9c
  100bfa:	8b 9c 24 b0 00 00 00 	mov    ebx,DWORD PTR [esp+0xb0]
  100c01:	8d 7c 24 10          	lea    edi,[esp+0x10]
    directory_t * current = relative ? relative : root;
  100c05:	85 db                	test   ebx,ebx
  100c07:	0f 44 1d 00 ae 23 00 	cmove  ebx,DWORD PTR ds:0x23ae00
                    current = d;
  100c0e:	31 f6                	xor    esi,esi
  100c10:	eb 0f                	jmp    100c21 <directory_open+0x31>
  100c12:	8d b6 00 00 00 00    	lea    esi,[esi+0x0]
            current = current->parent;
  100c18:	8b 9b 88 00 00 00    	mov    ebx,DWORD PTR [ebx+0x88]
    for (int i = 0; path_read(path, i, buffer); i++) 
  100c1e:	83 c6 01             	add    esi,0x1
  100c21:	83 ec 04             	sub    esp,0x4
  100c24:	57                   	push   edi
  100c25:	56                   	push   esi
  100c26:	ff b4 24 c0 00 00 00 	push   DWORD PTR [esp+0xc0]
  100c2d:	e8 ee 76 00 00       	call   108320 <path_read>
  100c32:	83 c4 10             	add    esp,0x10
  100c35:	85 c0                	test   eax,eax
  100c37:	74 67                	je     100ca0 <directory_open+0xb0>
        if (strcmp(buffer, "..") == 0)
  100c39:	83 ec 08             	sub    esp,0x8
  100c3c:	68 a0 21 11 00       	push   0x1121a0
  100c41:	57                   	push   edi
  100c42:	e8 39 4f 00 00       	call   105b80 <strcmp>
  100c47:	83 c4 10             	add    esp,0x10
  100c4a:	85 c0                	test   eax,eax
  100c4c:	74 ca                	je     100c18 <directory_open+0x28>
        else if (strcmp(buffer, ".") == 0)
  100c4e:	83 ec 08             	sub    esp,0x8
  100c51:	68 eb 1e 11 00       	push   0x111eeb
  100c56:	57                   	push   edi
  100c57:	e8 24 4f 00 00       	call   105b80 <strcmp>
  100c5c:	83 c4 10             	add    esp,0x10
  100c5f:	85 c0                	test   eax,eax
  100c61:	74 bb                	je     100c1e <directory_open+0x2e>
            SLL_FOREARCH(i, current->directories)
  100c63:	8b 83 84 00 00 00    	mov    eax,DWORD PTR [ebx+0x84]
  100c69:	8b 68 04             	mov    ebp,DWORD PTR [eax+0x4]
  100c6c:	85 ed                	test   ebp,ebp
  100c6e:	74 ae                	je     100c1e <directory_open+0x2e>
                directory_t *d = (directory_t *)i->data;
  100c70:	8b 4d 00             	mov    ecx,DWORD PTR [ebp+0x0]
                if (strcmp(buffer, d->name) == 0)
  100c73:	83 ec 08             	sub    esp,0x8
  100c76:	51                   	push   ecx
  100c77:	89 4c 24 18          	mov    DWORD PTR [esp+0x18],ecx
  100c7b:	57                   	push   edi
  100c7c:	e8 ff 4e 00 00       	call   105b80 <strcmp>
  100c81:	83 c4 10             	add    esp,0x10
                    current = d;
  100c84:	8b 4c 24 0c          	mov    ecx,DWORD PTR [esp+0xc]
            SLL_FOREARCH(i, current->directories)
  100c88:	8b 6d 04             	mov    ebp,DWORD PTR [ebp+0x4]
                    current = d;
  100c8b:	85 c0                	test   eax,eax
  100c8d:	0f 44 d9             	cmove  ebx,ecx
            SLL_FOREARCH(i, current->directories)
  100c90:	85 ed                	test   ebp,ebp
  100c92:	75 dc                	jne    100c70 <directory_open+0x80>
  100c94:	eb 88                	jmp    100c1e <directory_open+0x2e>
  100c96:	8d 76 00             	lea    esi,[esi+0x0]
  100c99:	8d bc 27 00 00 00 00 	lea    edi,[edi+eiz*1+0x0]
}
  100ca0:	81 c4 9c 00 00 00    	add    esp,0x9c
  100ca6:	89 d8                	mov    eax,ebx
  100ca8:	5b                   	pop    ebx
  100ca9:	5e                   	pop    esi
  100caa:	5f                   	pop    edi
  100cab:	5d                   	pop    ebp
  100cac:	c3                   	ret    
  100cad:	8d 76 00             	lea    esi,[esi+0x0]

00100cb0 <directory_close>:
}
  100cb0:	f3 c3                	repz ret 
  100cb2:	8d b4 26 00 00 00 00 	lea    esi,[esi+eiz*1+0x0]
  100cb9:	8d bc 27 00 00 00 00 	lea    edi,[edi+eiz*1+0x0]

00100cc0 <directory_get_files>:
{
  100cc0:	83 ec 0c             	sub    esp,0xc
  100cc3:	8b 4c 24 14          	mov    ecx,DWORD PTR [esp+0x14]
    SLL_FOREARCH(i, directory->files)
  100cc7:	8b 44 24 10          	mov    eax,DWORD PTR [esp+0x10]
{
  100ccb:	8b 54 24 18          	mov    edx,DWORD PTR [esp+0x18]
    name[0] = '\0';
  100ccf:	c6 01 00             	mov    BYTE PTR [ecx],0x0
    SLL_FOREARCH(i, directory->files)
  100cd2:	8b 80 80 00 00 00    	mov    eax,DWORD PTR [eax+0x80]
  100cd8:	8b 40 04             	mov    eax,DWORD PTR [eax+0x4]
  100cdb:	85 c0                	test   eax,eax
  100cdd:	75 13                	jne    100cf2 <directory_get_files+0x32>
  100cdf:	eb 37                	jmp    100d18 <directory_get_files+0x58>
  100ce1:	8d b4 26 00 00 00 00 	lea    esi,[esi+eiz*1+0x0]
  100ce8:	8b 40 04             	mov    eax,DWORD PTR [eax+0x4]
        index--;
  100ceb:	83 ea 01             	sub    edx,0x1
    SLL_FOREARCH(i, directory->files)
  100cee:	85 c0                	test   eax,eax
  100cf0:	74 1b                	je     100d0d <directory_get_files+0x4d>
        if (index == 0)
  100cf2:	85 d2                	test   edx,edx
  100cf4:	75 f2                	jne    100ce8 <directory_get_files+0x28>
            strcpy(name, ((file_t *)i->data)->name);
  100cf6:	8b 00                	mov    eax,DWORD PTR [eax]
  100cf8:	83 ec 08             	sub    esp,0x8
  100cfb:	83 c0 0c             	add    eax,0xc
  100cfe:	50                   	push   eax
  100cff:	51                   	push   ecx
  100d00:	e8 0b 51 00 00       	call   105e10 <strcpy>
            return 1;
  100d05:	83 c4 10             	add    esp,0x10
  100d08:	b8 01 00 00 00       	mov    eax,0x1
}
  100d0d:	83 c4 0c             	add    esp,0xc
  100d10:	c3                   	ret    
  100d11:	8d b4 26 00 00 00 00 	lea    esi,[esi+eiz*1+0x0]
    return 0;
  100d18:	31 c0                	xor    eax,eax
  100d1a:	eb f1                	jmp    100d0d <directory_get_files+0x4d>
  100d1c:	8d 74 26 00          	lea    esi,[esi+eiz*1+0x0]

00100d20 <directory_get_directories>:
{
  100d20:	83 ec 0c             	sub    esp,0xc
  100d23:	8b 4c 24 14          	mov    ecx,DWORD PTR [esp+0x14]
    SLL_FOREARCH(i, directory->directories)
  100d27:	8b 44 24 10          	mov    eax,DWORD PTR [esp+0x10]
{
  100d2b:	8b 54 24 18          	mov    edx,DWORD PTR [esp+0x18]
    name[0] = '\0';
  100d2f:	c6 01 00             	mov    BYTE PTR [ecx],0x0
    SLL_FOREARCH(i, directory->directories)
  100d32:	8b 80 84 00 00 00    	mov    eax,DWORD PTR [eax+0x84]
  100d38:	8b 40 04             	mov    eax,DWORD PTR [eax+0x4]
  100d3b:	85 c0                	test   eax,eax
  100d3d:	75 13                	jne    100d52 <directory_get_directories+0x32>
  100d3f:	eb 2f                	jmp    100d70 <directory_get_directories+0x50>
  100d41:	8d b4 26 00 00 00 00 	lea    esi,[esi+eiz*1+0x0]
  100d48:	8b 40 04             	mov    eax,DWORD PTR [eax+0x4]
        index--;
  100d4b:	83 ea 01             	sub    edx,0x1
    SLL_FOREARCH(i, directory->directories)
  100d4e:	85 c0                	test   eax,eax
  100d50:	74 17                	je     100d69 <directory_get_directories+0x49>
        if (index == 0)
  100d52:	85 d2                	test   edx,edx
  100d54:	75 f2                	jne    100d48 <directory_get_directories+0x28>
            strcpy(name, ((directory_t *)i->data)->name);
  100d56:	83 ec 08             	sub    esp,0x8
  100d59:	ff 30                	push   DWORD PTR [eax]
  100d5b:	51                   	push   ecx
  100d5c:	e8 af 50 00 00       	call   105e10 <strcpy>
            return 1;
  100d61:	83 c4 10             	add    esp,0x10
  100d64:	b8 01 00 00 00       	mov    eax,0x1
    }

    return 0;
}
  100d69:	83 c4 0c             	add    esp,0xc
  100d6c:	c3                   	ret    
  100d6d:	8d 76 00             	lea    esi,[esi+0x0]
    return 0;
  100d70:	31 c0                	xor    eax,eax
  100d72:	eb f5                	jmp    100d69 <directory_get_directories+0x49>
  100d74:	8d b6 00 00 00 00    	lea    esi,[esi+0x0]
  100d7a:	8d bf 00 00 00 00    	lea    edi,[edi+0x0]

00100d80 <alloc_file>:

/* === FILES ================================================================ */

file_t *alloc_file(const char *name)
{
  100d80:	53                   	push   ebx
  100d81:	83 ec 14             	sub    esp,0x14
    file_t *file = MALLOC(file_t);
  100d84:	68 90 00 00 00       	push   0x90
  100d89:	e8 12 62 00 00       	call   106fa0 <malloc>
  100d8e:	89 c3                	mov    ebx,eax

    strncpy((char *)&file->name, name, PATH_FILE_NAME_SIZE);
  100d90:	8d 40 0c             	lea    eax,[eax+0xc]
  100d93:	83 c4 0c             	add    esp,0xc
  100d96:	68 80 00 00 00       	push   0x80
  100d9b:	ff 74 24 18          	push   DWORD PTR [esp+0x18]
  100d9f:	50                   	push   eax
  100da0:	e8 9b 50 00 00       	call   105e40 <strncpy>

    return file;
}
  100da5:	83 c4 18             	add    esp,0x18
  100da8:	89 d8                	mov    eax,ebx
  100daa:	5b                   	pop    ebx
  100dab:	c3                   	ret    
  100dac:	8d 74 26 00          	lea    esi,[esi+eiz*1+0x0]

00100db0 <file_create>:

/* --- Create/Delete/Existe ------------------------------------------------- */

int file_create(directory_t *relative, const char *path, filesystem_t * fs, int device, int inode)
{
  100db0:	55                   	push   ebp
  100db1:	57                   	push   edi
  100db2:	56                   	push   esi
  100db3:	53                   	push   ebx
  100db4:	81 ec 28 01 00 00    	sub    esp,0x128
  100dba:	8b ac 24 40 01 00 00 	mov    ebp,DWORD PTR [esp+0x140]
  100dc1:	8b 9c 24 3c 01 00 00 	mov    ebx,DWORD PTR [esp+0x13c]
    char *dir_path = malloc(strlen(path));
  100dc8:	55                   	push   ebp
  100dc9:	e8 f2 52 00 00       	call   1060c0 <strlen>
  100dce:	89 04 24             	mov    DWORD PTR [esp],eax
  100dd1:	e8 ca 61 00 00       	call   106fa0 <malloc>
  100dd6:	89 44 24 18          	mov    DWORD PTR [esp+0x18],eax
    char file_name[128];
    file_t *file = NULL;

    if (path_split(path, dir_path, file_name))
  100dda:	83 c4 0c             	add    esp,0xc
  100ddd:	8d 4c 24 14          	lea    ecx,[esp+0x14]
  100de1:	51                   	push   ecx
  100de2:	50                   	push   eax
  100de3:	55                   	push   ebp
  100de4:	e8 a7 76 00 00       	call   108490 <path_split>
  100de9:	83 c4 10             	add    esp,0x10
  100dec:	85 c0                	test   eax,eax
  100dee:	89 c6                	mov    esi,eax
  100df0:	75 1e                	jne    100e10 <file_create+0x60>
        file->fs = fs;
        file->device = device;
        file->inode = inode;
    }

    free(dir_path);
  100df2:	83 ec 0c             	sub    esp,0xc
  100df5:	ff 74 24 14          	push   DWORD PTR [esp+0x14]
  100df9:	e8 72 66 00 00       	call   107470 <free>
    return file == NULL ? 0 : 1;
}
  100dfe:	81 c4 2c 01 00 00    	add    esp,0x12c
  100e04:	89 f0                	mov    eax,esi
  100e06:	5b                   	pop    ebx
  100e07:	5e                   	pop    esi
  100e08:	5f                   	pop    edi
  100e09:	5d                   	pop    ebp
  100e0a:	c3                   	ret    
  100e0b:	90                   	nop
  100e0c:	8d 74 26 00          	lea    esi,[esi+eiz*1+0x0]
    directory_t * current = relative ? relative : root;
  100e10:	85 db                	test   ebx,ebx
  100e12:	8d bc 24 90 00 00 00 	lea    edi,[esp+0x90]
  100e19:	0f 44 1d 00 ae 23 00 	cmove  ebx,DWORD PTR ds:0x23ae00
                    current = d;
  100e20:	31 f6                	xor    esi,esi
  100e22:	eb 0d                	jmp    100e31 <file_create+0x81>
  100e24:	8d 74 26 00          	lea    esi,[esi+eiz*1+0x0]
            current = current->parent;
  100e28:	8b 9b 88 00 00 00    	mov    ebx,DWORD PTR [ebx+0x88]
    for (int i = 0; path_read(path, i, buffer); i++) 
  100e2e:	83 c6 01             	add    esi,0x1
  100e31:	83 ec 04             	sub    esp,0x4
  100e34:	57                   	push   edi
  100e35:	56                   	push   esi
  100e36:	55                   	push   ebp
  100e37:	e8 e4 74 00 00       	call   108320 <path_read>
  100e3c:	83 c4 10             	add    esp,0x10
  100e3f:	85 c0                	test   eax,eax
  100e41:	74 7d                	je     100ec0 <file_create+0x110>
        if (strcmp(buffer, "..") == 0)
  100e43:	83 ec 08             	sub    esp,0x8
  100e46:	68 a0 21 11 00       	push   0x1121a0
  100e4b:	57                   	push   edi
  100e4c:	e8 2f 4d 00 00       	call   105b80 <strcmp>
  100e51:	83 c4 10             	add    esp,0x10
  100e54:	85 c0                	test   eax,eax
  100e56:	74 d0                	je     100e28 <file_create+0x78>
        else if (strcmp(buffer, ".") == 0)
  100e58:	83 ec 08             	sub    esp,0x8
  100e5b:	68 eb 1e 11 00       	push   0x111eeb
  100e60:	57                   	push   edi
  100e61:	e8 1a 4d 00 00       	call   105b80 <strcmp>
  100e66:	83 c4 10             	add    esp,0x10
  100e69:	85 c0                	test   eax,eax
  100e6b:	74 c1                	je     100e2e <file_create+0x7e>
            SLL_FOREARCH(i, current->directories)
  100e6d:	8b 83 84 00 00 00    	mov    eax,DWORD PTR [ebx+0x84]
  100e73:	8b 50 04             	mov    edx,DWORD PTR [eax+0x4]
  100e76:	85 d2                	test   edx,edx
  100e78:	74 b4                	je     100e2e <file_create+0x7e>
  100e7a:	89 74 24 0c          	mov    DWORD PTR [esp+0xc],esi
  100e7e:	89 ac 24 34 01 00 00 	mov    DWORD PTR [esp+0x134],ebp
  100e85:	89 de                	mov    esi,ebx
  100e87:	89 d3                	mov    ebx,edx
  100e89:	8d b4 26 00 00 00 00 	lea    esi,[esi+eiz*1+0x0]
                directory_t *d = (directory_t *)i->data;
  100e90:	8b 2b                	mov    ebp,DWORD PTR [ebx]
                if (strcmp(buffer, d->name) == 0)
  100e92:	83 ec 08             	sub    esp,0x8
  100e95:	55                   	push   ebp
  100e96:	57                   	push   edi
  100e97:	e8 e4 4c 00 00       	call   105b80 <strcmp>
            SLL_FOREARCH(i, current->directories)
  100e9c:	8b 5b 04             	mov    ebx,DWORD PTR [ebx+0x4]
                if (strcmp(buffer, d->name) == 0)
  100e9f:	83 c4 10             	add    esp,0x10
                    current = d;
  100ea2:	85 c0                	test   eax,eax
  100ea4:	0f 44 f5             	cmove  esi,ebp
            SLL_FOREARCH(i, current->directories)
  100ea7:	85 db                	test   ebx,ebx
  100ea9:	75 e5                	jne    100e90 <file_create+0xe0>
  100eab:	89 f3                	mov    ebx,esi
  100ead:	8b ac 24 34 01 00 00 	mov    ebp,DWORD PTR [esp+0x134]
  100eb4:	8b 74 24 0c          	mov    esi,DWORD PTR [esp+0xc]
  100eb8:	e9 71 ff ff ff       	jmp    100e2e <file_create+0x7e>
  100ebd:	8d 76 00             	lea    esi,[esi+0x0]
    file_t *file = MALLOC(file_t);
  100ec0:	83 ec 0c             	sub    esp,0xc
  100ec3:	68 90 00 00 00       	push   0x90
  100ec8:	e8 d3 60 00 00       	call   106fa0 <malloc>
    strncpy((char *)&file->name, name, PATH_FILE_NAME_SIZE);
  100ecd:	83 c4 0c             	add    esp,0xc
    file_t *file = MALLOC(file_t);
  100ed0:	89 c6                	mov    esi,eax
    strncpy((char *)&file->name, name, PATH_FILE_NAME_SIZE);
  100ed2:	68 80 00 00 00       	push   0x80
  100ed7:	8d 44 24 18          	lea    eax,[esp+0x18]
  100edb:	50                   	push   eax
  100edc:	8d 46 0c             	lea    eax,[esi+0xc]
  100edf:	50                   	push   eax
  100ee0:	e8 5b 4f 00 00       	call   105e40 <strncpy>
        file->parent = parent;
  100ee5:	89 9e 8c 00 00 00    	mov    DWORD PTR [esi+0x8c],ebx
        sll_add((u32)file, parent->files);
  100eeb:	58                   	pop    eax
  100eec:	5a                   	pop    edx
  100eed:	ff b3 80 00 00 00    	push   DWORD PTR [ebx+0x80]
  100ef3:	56                   	push   esi
  100ef4:	e8 57 6d 00 00       	call   107c50 <sll_add>
        file->fs = fs;
  100ef9:	8b 84 24 48 01 00 00 	mov    eax,DWORD PTR [esp+0x148]
  100f00:	89 46 08             	mov    DWORD PTR [esi+0x8],eax
        file->device = device;
  100f03:	8b 84 24 4c 01 00 00 	mov    eax,DWORD PTR [esp+0x14c]
  100f0a:	89 06                	mov    DWORD PTR [esi],eax
        file->inode = inode;
  100f0c:	8b 84 24 50 01 00 00 	mov    eax,DWORD PTR [esp+0x150]
  100f13:	83 c4 10             	add    esp,0x10
  100f16:	89 46 04             	mov    DWORD PTR [esi+0x4],eax
  100f19:	be 01 00 00 00       	mov    esi,0x1
  100f1e:	e9 cf fe ff ff       	jmp    100df2 <file_create+0x42>
  100f23:	8d b6 00 00 00 00    	lea    esi,[esi+0x0]
  100f29:	8d bc 27 00 00 00 00 	lea    edi,[edi+eiz*1+0x0]

00100f30 <file_delete>:

int file_delete(directory_t *relative, const char *path)
{
  100f30:	83 ec 0c             	sub    esp,0xc
    STUB(relative, path);
  100f33:	ff 74 24 14          	push   DWORD PTR [esp+0x14]
  100f37:	ff 74 24 14          	push   DWORD PTR [esp+0x14]
  100f3b:	68 f4 1c 11 00       	push   0x111cf4
  100f40:	68 a8 1e 11 00       	push   0x111ea8
  100f45:	e8 26 57 00 00       	call   106670 <printf>
    return 1;
}
  100f4a:	b8 01 00 00 00       	mov    eax,0x1
  100f4f:	83 c4 1c             	add    esp,0x1c
  100f52:	c3                   	ret    
  100f53:	8d b6 00 00 00 00    	lea    esi,[esi+0x0]
  100f59:	8d bc 27 00 00 00 00 	lea    edi,[edi+eiz*1+0x0]

00100f60 <file_existe>:

int file_existe(directory_t *relative, const char *path)
{
  100f60:	55                   	push   ebp
  100f61:	57                   	push   edi
  100f62:	56                   	push   esi
  100f63:	53                   	push   ebx
  100f64:	81 ec 28 01 00 00    	sub    esp,0x128
  100f6a:	8b b4 24 40 01 00 00 	mov    esi,DWORD PTR [esp+0x140]
  100f71:	8b 9c 24 3c 01 00 00 	mov    ebx,DWORD PTR [esp+0x13c]
    char *dir_name = malloc(strlen(path));
  100f78:	56                   	push   esi
  100f79:	e8 42 51 00 00       	call   1060c0 <strlen>
  100f7e:	89 04 24             	mov    DWORD PTR [esp],eax
  100f81:	e8 1a 60 00 00       	call   106fa0 <malloc>
    if (path_split(path, dir_name, file_name))
  100f86:	83 c4 0c             	add    esp,0xc
    char *dir_name = malloc(strlen(path));
  100f89:	89 c5                	mov    ebp,eax
    if (path_split(path, dir_name, file_name))
  100f8b:	8d 44 24 14          	lea    eax,[esp+0x14]
  100f8f:	50                   	push   eax
  100f90:	55                   	push   ebp
  100f91:	56                   	push   esi
  100f92:	e8 f9 74 00 00       	call   108490 <path_split>
  100f97:	83 c4 10             	add    esp,0x10
  100f9a:	85 c0                	test   eax,eax
  100f9c:	0f 84 e7 00 00 00    	je     101089 <file_existe+0x129>
    directory_t * current = relative ? relative : root;
  100fa2:	85 db                	test   ebx,ebx
  100fa4:	8d bc 24 90 00 00 00 	lea    edi,[esp+0x90]
  100fab:	0f 44 1d 00 ae 23 00 	cmove  ebx,DWORD PTR ds:0x23ae00
                    current = d;
  100fb2:	31 f6                	xor    esi,esi
  100fb4:	eb 13                	jmp    100fc9 <file_existe+0x69>
  100fb6:	8d 76 00             	lea    esi,[esi+0x0]
  100fb9:	8d bc 27 00 00 00 00 	lea    edi,[edi+eiz*1+0x0]
            current = current->parent;
  100fc0:	8b 9b 88 00 00 00    	mov    ebx,DWORD PTR [ebx+0x88]
    for (int i = 0; path_read(path, i, buffer); i++) 
  100fc6:	83 c6 01             	add    esi,0x1
  100fc9:	83 ec 04             	sub    esp,0x4
  100fcc:	57                   	push   edi
  100fcd:	56                   	push   esi
  100fce:	55                   	push   ebp
  100fcf:	e8 4c 73 00 00       	call   108320 <path_read>
  100fd4:	83 c4 10             	add    esp,0x10
  100fd7:	85 c0                	test   eax,eax
  100fd9:	74 75                	je     101050 <file_existe+0xf0>
        if (strcmp(buffer, "..") == 0)
  100fdb:	83 ec 08             	sub    esp,0x8
  100fde:	68 a0 21 11 00       	push   0x1121a0
  100fe3:	57                   	push   edi
  100fe4:	e8 97 4b 00 00       	call   105b80 <strcmp>
  100fe9:	83 c4 10             	add    esp,0x10
  100fec:	85 c0                	test   eax,eax
  100fee:	74 d0                	je     100fc0 <file_existe+0x60>
        else if (strcmp(buffer, ".") == 0)
  100ff0:	83 ec 08             	sub    esp,0x8
  100ff3:	68 eb 1e 11 00       	push   0x111eeb
  100ff8:	57                   	push   edi
  100ff9:	e8 82 4b 00 00       	call   105b80 <strcmp>
  100ffe:	83 c4 10             	add    esp,0x10
  101001:	85 c0                	test   eax,eax
  101003:	74 c1                	je     100fc6 <file_existe+0x66>
            SLL_FOREARCH(i, current->directories)
  101005:	8b 83 84 00 00 00    	mov    eax,DWORD PTR [ebx+0x84]
  10100b:	8b 50 04             	mov    edx,DWORD PTR [eax+0x4]
  10100e:	85 d2                	test   edx,edx
  101010:	74 b4                	je     100fc6 <file_existe+0x66>
  101012:	89 74 24 0c          	mov    DWORD PTR [esp+0xc],esi
  101016:	89 6c 24 08          	mov    DWORD PTR [esp+0x8],ebp
  10101a:	89 de                	mov    esi,ebx
  10101c:	89 d3                	mov    ebx,edx
  10101e:	66 90                	xchg   ax,ax
                directory_t *d = (directory_t *)i->data;
  101020:	8b 2b                	mov    ebp,DWORD PTR [ebx]
                if (strcmp(buffer, d->name) == 0)
  101022:	83 ec 08             	sub    esp,0x8
  101025:	55                   	push   ebp
  101026:	57                   	push   edi
  101027:	e8 54 4b 00 00       	call   105b80 <strcmp>
            SLL_FOREARCH(i, current->directories)
  10102c:	8b 5b 04             	mov    ebx,DWORD PTR [ebx+0x4]
                if (strcmp(buffer, d->name) == 0)
  10102f:	83 c4 10             	add    esp,0x10
                    current = d;
  101032:	85 c0                	test   eax,eax
  101034:	0f 44 f5             	cmove  esi,ebp
            SLL_FOREARCH(i, current->directories)
  101037:	85 db                	test   ebx,ebx
  101039:	75 e5                	jne    101020 <file_existe+0xc0>
  10103b:	89 f3                	mov    ebx,esi
  10103d:	8b 6c 24 08          	mov    ebp,DWORD PTR [esp+0x8]
  101041:	8b 74 24 0c          	mov    esi,DWORD PTR [esp+0xc]
  101045:	e9 7c ff ff ff       	jmp    100fc6 <file_existe+0x66>
  10104a:	8d b6 00 00 00 00    	lea    esi,[esi+0x0]
        SLL_FOREARCH(i, dir->files)
  101050:	8b 93 80 00 00 00    	mov    edx,DWORD PTR [ebx+0x80]
  101056:	8b 5a 04             	mov    ebx,DWORD PTR [edx+0x4]
  101059:	85 db                	test   ebx,ebx
  10105b:	74 2c                	je     101089 <file_existe+0x129>
    file_t *file = NULL;
  10105d:	31 ff                	xor    edi,edi
  10105f:	90                   	nop
            file_t* f = (file_t *)i->data;
  101060:	8b 33                	mov    esi,DWORD PTR [ebx]
            if (strcmp(file_name, f->name) == 0)
  101062:	83 ec 08             	sub    esp,0x8
  101065:	8d 46 0c             	lea    eax,[esi+0xc]
  101068:	50                   	push   eax
  101069:	8d 44 24 1c          	lea    eax,[esp+0x1c]
  10106d:	50                   	push   eax
  10106e:	e8 0d 4b 00 00       	call   105b80 <strcmp>
        SLL_FOREARCH(i, dir->files)
  101073:	8b 5b 04             	mov    ebx,DWORD PTR [ebx+0x4]
            if (strcmp(file_name, f->name) == 0)
  101076:	83 c4 10             	add    esp,0x10
                file = f;
  101079:	85 c0                	test   eax,eax
  10107b:	0f 44 fe             	cmove  edi,esi
        SLL_FOREARCH(i, dir->files)
  10107e:	85 db                	test   ebx,ebx
  101080:	75 de                	jne    101060 <file_existe+0x100>
  101082:	31 c0                	xor    eax,eax
  101084:	85 ff                	test   edi,edi
  101086:	0f 95 c0             	setne  al
  101089:	89 44 24 08          	mov    DWORD PTR [esp+0x8],eax
    free(dir_name);
  10108d:	83 ec 0c             	sub    esp,0xc
  101090:	55                   	push   ebp
  101091:	e8 da 63 00 00       	call   107470 <free>
  101096:	83 c4 10             	add    esp,0x10
  101099:	8b 44 24 08          	mov    eax,DWORD PTR [esp+0x8]
    }
    else
    {
        return 0;
    }
}
  10109d:	81 c4 1c 01 00 00    	add    esp,0x11c
  1010a3:	5b                   	pop    ebx
  1010a4:	5e                   	pop    esi
  1010a5:	5f                   	pop    edi
  1010a6:	5d                   	pop    ebp
  1010a7:	c3                   	ret    
  1010a8:	90                   	nop
  1010a9:	8d b4 26 00 00 00 00 	lea    esi,[esi+eiz*1+0x0]

001010b0 <file_copy>:

/* --- Move/Copy ------------------------------------------------------------ */

int file_copy(directory_t *relative_s, const char *source, directory_t *relative_d, const char *destination)
{
  1010b0:	83 ec 14             	sub    esp,0x14
    STUB(relative_s, source, relative_d, destination);
  1010b3:	ff 74 24 24          	push   DWORD PTR [esp+0x24]
  1010b7:	ff 74 24 24          	push   DWORD PTR [esp+0x24]
  1010bb:	ff 74 24 24          	push   DWORD PTR [esp+0x24]
  1010bf:	ff 74 24 24          	push   DWORD PTR [esp+0x24]
  1010c3:	68 e8 1c 11 00       	push   0x111ce8
  1010c8:	68 a8 1e 11 00       	push   0x111ea8
  1010cd:	e8 9e 55 00 00       	call   106670 <printf>
    return 1;
}
  1010d2:	b8 01 00 00 00       	mov    eax,0x1
  1010d7:	83 c4 2c             	add    esp,0x2c
  1010da:	c3                   	ret    
  1010db:	90                   	nop
  1010dc:	8d 74 26 00          	lea    esi,[esi+eiz*1+0x0]

001010e0 <file_move>:

int file_move(directory_t *relative_s, const char *source, directory_t *relative_d, const char *destination)
{
  1010e0:	83 ec 14             	sub    esp,0x14
    STUB(relative_s, source, relative_d, destination);
  1010e3:	ff 74 24 24          	push   DWORD PTR [esp+0x24]
  1010e7:	ff 74 24 24          	push   DWORD PTR [esp+0x24]
  1010eb:	ff 74 24 24          	push   DWORD PTR [esp+0x24]
  1010ef:	ff 74 24 24          	push   DWORD PTR [esp+0x24]
  1010f3:	68 dc 1c 11 00       	push   0x111cdc
  1010f8:	68 a8 1e 11 00       	push   0x111ea8
  1010fd:	e8 6e 55 00 00       	call   106670 <printf>
    return 1;
}
  101102:	b8 01 00 00 00       	mov    eax,0x1
  101107:	83 c4 2c             	add    esp,0x2c
  10110a:	c3                   	ret    
  10110b:	90                   	nop
  10110c:	8d 74 26 00          	lea    esi,[esi+eiz*1+0x0]

00101110 <file_open>:

/* --- Open/Close/Read/Write ------------------------------------------------ */

file_t *file_open(directory_t *relative, const char *path)
{
  101110:	55                   	push   ebp
  101111:	57                   	push   edi
  101112:	56                   	push   esi
  101113:	53                   	push   ebx
  101114:	81 ec 28 01 00 00    	sub    esp,0x128
  10111a:	8b b4 24 40 01 00 00 	mov    esi,DWORD PTR [esp+0x140]
  101121:	8b 9c 24 3c 01 00 00 	mov    ebx,DWORD PTR [esp+0x13c]
    char *dir_name = malloc(strlen(path));
  101128:	56                   	push   esi
  101129:	e8 92 4f 00 00       	call   1060c0 <strlen>
  10112e:	89 04 24             	mov    DWORD PTR [esp],eax
  101131:	e8 6a 5e 00 00       	call   106fa0 <malloc>
    if (path_split(path, dir_name, file_name))
  101136:	83 c4 0c             	add    esp,0xc
    char *dir_name = malloc(strlen(path));
  101139:	89 c5                	mov    ebp,eax
    if (path_split(path, dir_name, file_name))
  10113b:	8d 44 24 14          	lea    eax,[esp+0x14]
  10113f:	50                   	push   eax
  101140:	55                   	push   ebp
  101141:	56                   	push   esi
  101142:	e8 49 73 00 00       	call   108490 <path_split>
  101147:	83 c4 10             	add    esp,0x10
  10114a:	85 c0                	test   eax,eax
  10114c:	0f 84 16 01 00 00    	je     101268 <file_open+0x158>
    directory_t * current = relative ? relative : root;
  101152:	85 db                	test   ebx,ebx
  101154:	8d bc 24 90 00 00 00 	lea    edi,[esp+0x90]
  10115b:	0f 44 1d 00 ae 23 00 	cmove  ebx,DWORD PTR ds:0x23ae00
                    current = d;
  101162:	31 f6                	xor    esi,esi
  101164:	eb 13                	jmp    101179 <file_open+0x69>
  101166:	8d 76 00             	lea    esi,[esi+0x0]
  101169:	8d bc 27 00 00 00 00 	lea    edi,[edi+eiz*1+0x0]
            current = current->parent;
  101170:	8b 9b 88 00 00 00    	mov    ebx,DWORD PTR [ebx+0x88]
    for (int i = 0; path_read(path, i, buffer); i++) 
  101176:	83 c6 01             	add    esi,0x1
  101179:	83 ec 04             	sub    esp,0x4
  10117c:	57                   	push   edi
  10117d:	56                   	push   esi
  10117e:	55                   	push   ebp
  10117f:	e8 9c 71 00 00       	call   108320 <path_read>
  101184:	83 c4 10             	add    esp,0x10
  101187:	85 c0                	test   eax,eax
  101189:	74 75                	je     101200 <file_open+0xf0>
        if (strcmp(buffer, "..") == 0)
  10118b:	83 ec 08             	sub    esp,0x8
  10118e:	68 a0 21 11 00       	push   0x1121a0
  101193:	57                   	push   edi
  101194:	e8 e7 49 00 00       	call   105b80 <strcmp>
  101199:	83 c4 10             	add    esp,0x10
  10119c:	85 c0                	test   eax,eax
  10119e:	74 d0                	je     101170 <file_open+0x60>
        else if (strcmp(buffer, ".") == 0)
  1011a0:	83 ec 08             	sub    esp,0x8
  1011a3:	68 eb 1e 11 00       	push   0x111eeb
  1011a8:	57                   	push   edi
  1011a9:	e8 d2 49 00 00       	call   105b80 <strcmp>
  1011ae:	83 c4 10             	add    esp,0x10
  1011b1:	85 c0                	test   eax,eax
  1011b3:	74 c1                	je     101176 <file_open+0x66>
            SLL_FOREARCH(i, current->directories)
  1011b5:	8b 83 84 00 00 00    	mov    eax,DWORD PTR [ebx+0x84]
  1011bb:	8b 50 04             	mov    edx,DWORD PTR [eax+0x4]
  1011be:	85 d2                	test   edx,edx
  1011c0:	74 b4                	je     101176 <file_open+0x66>
  1011c2:	89 74 24 0c          	mov    DWORD PTR [esp+0xc],esi
  1011c6:	89 6c 24 08          	mov    DWORD PTR [esp+0x8],ebp
  1011ca:	89 de                	mov    esi,ebx
  1011cc:	89 d3                	mov    ebx,edx
  1011ce:	66 90                	xchg   ax,ax
                directory_t *d = (directory_t *)i->data;
  1011d0:	8b 2b                	mov    ebp,DWORD PTR [ebx]
                if (strcmp(buffer, d->name) == 0)
  1011d2:	83 ec 08             	sub    esp,0x8
  1011d5:	55                   	push   ebp
  1011d6:	57                   	push   edi
  1011d7:	e8 a4 49 00 00       	call   105b80 <strcmp>
            SLL_FOREARCH(i, current->directories)
  1011dc:	8b 5b 04             	mov    ebx,DWORD PTR [ebx+0x4]
                if (strcmp(buffer, d->name) == 0)
  1011df:	83 c4 10             	add    esp,0x10
                    current = d;
  1011e2:	85 c0                	test   eax,eax
  1011e4:	0f 44 f5             	cmove  esi,ebp
            SLL_FOREARCH(i, current->directories)
  1011e7:	85 db                	test   ebx,ebx
  1011e9:	75 e5                	jne    1011d0 <file_open+0xc0>
  1011eb:	89 f3                	mov    ebx,esi
  1011ed:	8b 6c 24 08          	mov    ebp,DWORD PTR [esp+0x8]
  1011f1:	8b 74 24 0c          	mov    esi,DWORD PTR [esp+0xc]
  1011f5:	e9 7c ff ff ff       	jmp    101176 <file_open+0x66>
  1011fa:	8d b6 00 00 00 00    	lea    esi,[esi+0x0]
        SLL_FOREARCH(i, dir->files)
  101200:	8b 83 80 00 00 00    	mov    eax,DWORD PTR [ebx+0x80]
  101206:	8b 58 04             	mov    ebx,DWORD PTR [eax+0x4]
  101209:	85 db                	test   ebx,ebx
  10120b:	74 5b                	je     101268 <file_open+0x158>
    file_t *file = NULL;
  10120d:	31 ff                	xor    edi,edi
  10120f:	90                   	nop
            file_t* f = (file_t *)i->data;
  101210:	8b 33                	mov    esi,DWORD PTR [ebx]
            if (strcmp(file_name, f->name) == 0)
  101212:	83 ec 08             	sub    esp,0x8
  101215:	8d 46 0c             	lea    eax,[esi+0xc]
  101218:	50                   	push   eax
  101219:	8d 44 24 1c          	lea    eax,[esp+0x1c]
  10121d:	50                   	push   eax
  10121e:	e8 5d 49 00 00       	call   105b80 <strcmp>
        SLL_FOREARCH(i, dir->files)
  101223:	8b 5b 04             	mov    ebx,DWORD PTR [ebx+0x4]
            if (strcmp(file_name, f->name) == 0)
  101226:	83 c4 10             	add    esp,0x10
                file = f;
  101229:	85 c0                	test   eax,eax
  10122b:	0f 44 fe             	cmove  edi,esi
        SLL_FOREARCH(i, dir->files)
  10122e:	85 db                	test   ebx,ebx
  101230:	75 de                	jne    101210 <file_open+0x100>
    free(dir_name);
  101232:	83 ec 0c             	sub    esp,0xc
  101235:	55                   	push   ebp
  101236:	e8 35 62 00 00       	call   107470 <free>
    file_t * file = filesystem_get_file(relative, path);

    if (file != NULL && (file->fs->file_open == NULL || file->fs->file_open(file)))
  10123b:	83 c4 10             	add    esp,0x10
  10123e:	85 ff                	test   edi,edi
  101240:	74 46                	je     101288 <file_open+0x178>
  101242:	8b 47 08             	mov    eax,DWORD PTR [edi+0x8]
  101245:	8b 00                	mov    eax,DWORD PTR [eax]
  101247:	85 c0                	test   eax,eax
  101249:	74 0d                	je     101258 <file_open+0x148>
  10124b:	83 ec 0c             	sub    esp,0xc
  10124e:	57                   	push   edi
  10124f:	ff d0                	call   eax
  101251:	83 c4 10             	add    esp,0x10
  101254:	85 c0                	test   eax,eax
  101256:	74 30                	je     101288 <file_open+0x178>
    }
    else
    {
        return NULL;
    }
}
  101258:	81 c4 1c 01 00 00    	add    esp,0x11c
  10125e:	89 f8                	mov    eax,edi
  101260:	5b                   	pop    ebx
  101261:	5e                   	pop    esi
  101262:	5f                   	pop    edi
  101263:	5d                   	pop    ebp
  101264:	c3                   	ret    
  101265:	8d 76 00             	lea    esi,[esi+0x0]
    free(dir_name);
  101268:	83 ec 0c             	sub    esp,0xc
        return NULL;
  10126b:	31 ff                	xor    edi,edi
    free(dir_name);
  10126d:	55                   	push   ebp
  10126e:	e8 fd 61 00 00       	call   107470 <free>
  101273:	83 c4 10             	add    esp,0x10
}
  101276:	89 f8                	mov    eax,edi
  101278:	81 c4 1c 01 00 00    	add    esp,0x11c
  10127e:	5b                   	pop    ebx
  10127f:	5e                   	pop    esi
  101280:	5f                   	pop    edi
  101281:	5d                   	pop    ebp
  101282:	c3                   	ret    
  101283:	90                   	nop
  101284:	8d 74 26 00          	lea    esi,[esi+eiz*1+0x0]
        return NULL;
  101288:	31 ff                	xor    edi,edi
  10128a:	eb cc                	jmp    101258 <file_open+0x148>
  10128c:	8d 74 26 00          	lea    esi,[esi+eiz*1+0x0]

00101290 <file_close>:

void file_close(file_t *file)
{
  101290:	8b 44 24 04          	mov    eax,DWORD PTR [esp+0x4]
    if (file != NULL && file->fs->file_close != NULL)
  101294:	85 c0                	test   eax,eax
  101296:	74 10                	je     1012a8 <file_close+0x18>
  101298:	8b 40 08             	mov    eax,DWORD PTR [eax+0x8]
  10129b:	8b 40 04             	mov    eax,DWORD PTR [eax+0x4]
  10129e:	85 c0                	test   eax,eax
  1012a0:	74 06                	je     1012a8 <file_close+0x18>
    {
        file->fs->file_close(file);
  1012a2:	ff e0                	jmp    eax
  1012a4:	8d 74 26 00          	lea    esi,[esi+eiz*1+0x0]
    }
}
  1012a8:	f3 c3                	repz ret 
  1012aa:	8d b6 00 00 00 00    	lea    esi,[esi+0x0]

001012b0 <file_stat>:

void file_stat(file_t * file, fstat_t * stat)
{
  1012b0:	8b 44 24 04          	mov    eax,DWORD PTR [esp+0x4]
    if (file != NULL && file->fs->file_stat != NULL)
  1012b4:	85 c0                	test   eax,eax
  1012b6:	74 10                	je     1012c8 <file_stat+0x18>
  1012b8:	8b 40 08             	mov    eax,DWORD PTR [eax+0x8]
  1012bb:	8b 40 10             	mov    eax,DWORD PTR [eax+0x10]
  1012be:	85 c0                	test   eax,eax
  1012c0:	74 06                	je     1012c8 <file_stat+0x18>
    {
        file->fs->file_stat(file, stat);
  1012c2:	ff e0                	jmp    eax
  1012c4:	8d 74 26 00          	lea    esi,[esi+eiz*1+0x0]
    }
}
  1012c8:	f3 c3                	repz ret 
  1012ca:	8d b6 00 00 00 00    	lea    esi,[esi+0x0]

001012d0 <file_read>:

int file_read(file_t *file, uint offset, void *buffer, uint n)
{
  1012d0:	8b 44 24 04          	mov    eax,DWORD PTR [esp+0x4]
    if (file != NULL && file->fs->file_read !=NULL)
  1012d4:	85 c0                	test   eax,eax
  1012d6:	74 10                	je     1012e8 <file_read+0x18>
  1012d8:	8b 40 08             	mov    eax,DWORD PTR [eax+0x8]
  1012db:	8b 40 08             	mov    eax,DWORD PTR [eax+0x8]
  1012de:	85 c0                	test   eax,eax
  1012e0:	74 06                	je     1012e8 <file_read+0x18>
    {
        return file->fs->file_read(file, offset, buffer, n);
  1012e2:	ff e0                	jmp    eax
  1012e4:	8d 74 26 00          	lea    esi,[esi+eiz*1+0x0]
    }

    return 0;
}
  1012e8:	31 c0                	xor    eax,eax
  1012ea:	c3                   	ret    
  1012eb:	90                   	nop
  1012ec:	8d 74 26 00          	lea    esi,[esi+eiz*1+0x0]

001012f0 <file_read_all>:

void* file_read_all(file_t* file)
{
  1012f0:	56                   	push   esi
  1012f1:	53                   	push   ebx
  1012f2:	83 ec 14             	sub    esp,0x14
  1012f5:	8b 5c 24 20          	mov    ebx,DWORD PTR [esp+0x20]
    void* data = NULL;

    if (file != NULL)
  1012f9:	85 db                	test   ebx,ebx
  1012fb:	74 53                	je     101350 <file_read_all+0x60>
    if (file != NULL && file->fs->file_stat != NULL)
  1012fd:	8b 43 08             	mov    eax,DWORD PTR [ebx+0x8]
  101300:	8b 40 10             	mov    eax,DWORD PTR [eax+0x10]
  101303:	85 c0                	test   eax,eax
  101305:	74 0e                	je     101315 <file_read_all+0x25>
        file->fs->file_stat(file, stat);
  101307:	83 ec 08             	sub    esp,0x8
  10130a:	8d 54 24 0c          	lea    edx,[esp+0xc]
  10130e:	52                   	push   edx
  10130f:	53                   	push   ebx
  101310:	ff d0                	call   eax
  101312:	83 c4 10             	add    esp,0x10
    {
        fstat_t stat;
        file_stat(file, &stat);

        data = malloc(stat.size);
  101315:	83 ec 0c             	sub    esp,0xc
  101318:	ff 74 24 10          	push   DWORD PTR [esp+0x10]
  10131c:	e8 7f 5c 00 00       	call   106fa0 <malloc>
  101321:	89 c6                	mov    esi,eax
    if (file != NULL && file->fs->file_read !=NULL)
  101323:	8b 43 08             	mov    eax,DWORD PTR [ebx+0x8]
        file_read(file, 0, data, stat.size);
  101326:	8b 54 24 14          	mov    edx,DWORD PTR [esp+0x14]
    if (file != NULL && file->fs->file_read !=NULL)
  10132a:	83 c4 10             	add    esp,0x10
  10132d:	8b 40 08             	mov    eax,DWORD PTR [eax+0x8]
  101330:	85 c0                	test   eax,eax
  101332:	74 0a                	je     10133e <file_read_all+0x4e>
        return file->fs->file_read(file, offset, buffer, n);
  101334:	52                   	push   edx
  101335:	56                   	push   esi
  101336:	6a 00                	push   0x0
  101338:	53                   	push   ebx
  101339:	ff d0                	call   eax
  10133b:	83 c4 10             	add    esp,0x10
    }

    return data;
}
  10133e:	83 c4 14             	add    esp,0x14
  101341:	89 f0                	mov    eax,esi
  101343:	5b                   	pop    ebx
  101344:	5e                   	pop    esi
  101345:	c3                   	ret    
  101346:	8d 76 00             	lea    esi,[esi+0x0]
  101349:	8d bc 27 00 00 00 00 	lea    edi,[edi+eiz*1+0x0]
    void* data = NULL;
  101350:	31 f6                	xor    esi,esi
    return data;
  101352:	eb ea                	jmp    10133e <file_read_all+0x4e>
  101354:	8d b6 00 00 00 00    	lea    esi,[esi+0x0]
  10135a:	8d bf 00 00 00 00    	lea    edi,[edi+0x0]

00101360 <file_write>:

int file_write(file_t *file, uint offset, void *buffer, uint n)
{
  101360:	8b 44 24 04          	mov    eax,DWORD PTR [esp+0x4]
    if (file != NULL && file->fs->file_write !=NULL)
  101364:	85 c0                	test   eax,eax
  101366:	74 10                	je     101378 <file_write+0x18>
  101368:	8b 40 08             	mov    eax,DWORD PTR [eax+0x8]
  10136b:	8b 40 0c             	mov    eax,DWORD PTR [eax+0xc]
  10136e:	85 c0                	test   eax,eax
  101370:	74 06                	je     101378 <file_write+0x18>
    {
        return file->fs->file_write(file, offset, buffer, n);
  101372:	ff e0                	jmp    eax
  101374:	8d 74 26 00          	lea    esi,[esi+eiz*1+0x0]
    }

    return 0;
}
  101378:	31 c0                	xor    eax,eax
  10137a:	c3                   	ret    
  10137b:	66 90                	xchg   ax,ax
  10137d:	66 90                	xchg   ax,ax
  10137f:	90                   	nop

00101380 <load_module>:
#include "kernel/logger.h"
#include "kernel/modules.h"
#include "kernel/multiboot.h"

void load_module(multiboot_module_t *module)
{
  101380:	53                   	push   ebx
  101381:	83 ec 10             	sub    esp,0x10
  101384:	8b 5c 24 18          	mov    ebx,DWORD PTR [esp+0x18]
    log("Loading modules at 0x%x.", module);
  101388:	53                   	push   ebx
  101389:	68 b9 1e 11 00       	push   0x111eb9
  10138e:	e8 0d 03 00 00       	call   1016a0 <log>
    log("Module command line: '%s'.", module->cmdline);
  101393:	58                   	pop    eax
  101394:	5a                   	pop    edx
  101395:	ff 73 08             	push   DWORD PTR [ebx+0x8]
  101398:	68 d2 1e 11 00       	push   0x111ed2
  10139d:	e8 fe 02 00 00       	call   1016a0 <log>

    if (strcmp("ramdisk", (char*)module->cmdline) == 0)
  1013a2:	59                   	pop    ecx
  1013a3:	58                   	pop    eax
  1013a4:	ff 73 08             	push   DWORD PTR [ebx+0x8]
  1013a7:	68 ed 1e 11 00       	push   0x111eed
  1013ac:	e8 cf 47 00 00       	call   105b80 <strcmp>
  1013b1:	83 c4 10             	add    esp,0x10
  1013b4:	85 c0                	test   eax,eax
  1013b6:	74 18                	je     1013d0 <load_module+0x50>
    {
        ramdisk_load(module);
    }
    else
    {
        log("Unknow module '%s'!", module->cmdline);
  1013b8:	83 ec 08             	sub    esp,0x8
  1013bb:	ff 73 08             	push   DWORD PTR [ebx+0x8]
  1013be:	68 f5 1e 11 00       	push   0x111ef5
  1013c3:	e8 d8 02 00 00       	call   1016a0 <log>
    }
}
  1013c8:	83 c4 18             	add    esp,0x18
  1013cb:	5b                   	pop    ebx
  1013cc:	c3                   	ret    
  1013cd:	8d 76 00             	lea    esi,[esi+0x0]
        ramdisk_load(module);
  1013d0:	89 5c 24 10          	mov    DWORD PTR [esp+0x10],ebx
}
  1013d4:	83 c4 08             	add    esp,0x8
  1013d7:	5b                   	pop    ebx
        ramdisk_load(module);
  1013d8:	e9 f3 01 00 00       	jmp    1015d0 <ramdisk_load>
  1013dd:	8d 76 00             	lea    esi,[esi+0x0]

001013e0 <modules_get_end>:

uint modules_get_end(multiboot_info_t *minfo)
{
  1013e0:	8b 54 24 04          	mov    edx,DWORD PTR [esp+0x4]
    multiboot_module_t * module = (multiboot_module_t*)minfo->mods_addr;

    for(size_t i = 0; i < minfo->mods_count; i++)
  1013e4:	8b 4a 14             	mov    ecx,DWORD PTR [edx+0x14]
    multiboot_module_t * module = (multiboot_module_t*)minfo->mods_addr;
  1013e7:	8b 42 18             	mov    eax,DWORD PTR [edx+0x18]
    for(size_t i = 0; i < minfo->mods_count; i++)
  1013ea:	85 c9                	test   ecx,ecx
  1013ec:	74 0f                	je     1013fd <modules_get_end+0x1d>
  1013ee:	31 d2                	xor    edx,edx
    {
        module = (multiboot_module_t *)((u32)module->mod_end + 1);
  1013f0:	8b 40 04             	mov    eax,DWORD PTR [eax+0x4]
    for(size_t i = 0; i < minfo->mods_count; i++)
  1013f3:	83 c2 01             	add    edx,0x1
        module = (multiboot_module_t *)((u32)module->mod_end + 1);
  1013f6:	83 c0 01             	add    eax,0x1
    for(size_t i = 0; i < minfo->mods_count; i++)
  1013f9:	39 ca                	cmp    edx,ecx
  1013fb:	75 f3                	jne    1013f0 <modules_get_end+0x10>
    }

    return (uint)module;
}
  1013fd:	f3 c3                	repz ret 
  1013ff:	90                   	nop

00101400 <modules_setup>:

void modules_setup(multiboot_info_t *minfo)
{
  101400:	57                   	push   edi
  101401:	56                   	push   esi
    log("Kernel modules adresse: 0x%x.", minfo->mods_addr);

    
    multiboot_module_t * module = (multiboot_module_t*)minfo->mods_addr;

    for(size_t i = 0; i < minfo->mods_count; i++)
  101402:	31 f6                	xor    esi,esi
{
  101404:	53                   	push   ebx
  101405:	8b 7c 24 10          	mov    edi,DWORD PTR [esp+0x10]
    log("Bootloader: %s.", minfo->boot_loader_name);
  101409:	83 ec 08             	sub    esp,0x8
  10140c:	ff 77 40             	push   DWORD PTR [edi+0x40]
  10140f:	68 09 1f 11 00       	push   0x111f09
  101414:	e8 87 02 00 00       	call   1016a0 <log>
    log("Kernel modules count: %d.", minfo->mods_count);
  101419:	58                   	pop    eax
  10141a:	5a                   	pop    edx
  10141b:	ff 77 14             	push   DWORD PTR [edi+0x14]
  10141e:	68 19 1f 11 00       	push   0x111f19
  101423:	e8 78 02 00 00       	call   1016a0 <log>
    log("Kernel modules adresse: 0x%x.", minfo->mods_addr);
  101428:	59                   	pop    ecx
  101429:	5b                   	pop    ebx
  10142a:	ff 77 18             	push   DWORD PTR [edi+0x18]
  10142d:	68 33 1f 11 00       	push   0x111f33
  101432:	e8 69 02 00 00       	call   1016a0 <log>
    for(size_t i = 0; i < minfo->mods_count; i++)
  101437:	8b 47 14             	mov    eax,DWORD PTR [edi+0x14]
  10143a:	83 c4 10             	add    esp,0x10
    multiboot_module_t * module = (multiboot_module_t*)minfo->mods_addr;
  10143d:	8b 5f 18             	mov    ebx,DWORD PTR [edi+0x18]
    for(size_t i = 0; i < minfo->mods_count; i++)
  101440:	85 c0                	test   eax,eax
  101442:	74 5a                	je     10149e <modules_setup+0x9e>
  101444:	8d 74 26 00          	lea    esi,[esi+eiz*1+0x0]
    log("Loading modules at 0x%x.", module);
  101448:	83 ec 08             	sub    esp,0x8
  10144b:	53                   	push   ebx
  10144c:	68 b9 1e 11 00       	push   0x111eb9
  101451:	e8 4a 02 00 00       	call   1016a0 <log>
    log("Module command line: '%s'.", module->cmdline);
  101456:	58                   	pop    eax
  101457:	5a                   	pop    edx
  101458:	ff 73 08             	push   DWORD PTR [ebx+0x8]
  10145b:	68 d2 1e 11 00       	push   0x111ed2
  101460:	e8 3b 02 00 00       	call   1016a0 <log>
    if (strcmp("ramdisk", (char*)module->cmdline) == 0)
  101465:	59                   	pop    ecx
  101466:	58                   	pop    eax
  101467:	ff 73 08             	push   DWORD PTR [ebx+0x8]
  10146a:	68 ed 1e 11 00       	push   0x111eed
  10146f:	e8 0c 47 00 00       	call   105b80 <strcmp>
  101474:	83 c4 10             	add    esp,0x10
  101477:	85 c0                	test   eax,eax
  101479:	74 3d                	je     1014b8 <modules_setup+0xb8>
        log("Unknow module '%s'!", module->cmdline);
  10147b:	83 ec 08             	sub    esp,0x8
  10147e:	ff 73 08             	push   DWORD PTR [ebx+0x8]
    for(size_t i = 0; i < minfo->mods_count; i++)
  101481:	83 c6 01             	add    esi,0x1
        log("Unknow module '%s'!", module->cmdline);
  101484:	68 f5 1e 11 00       	push   0x111ef5
  101489:	e8 12 02 00 00       	call   1016a0 <log>
    {
        load_module(module);
        module = (multiboot_module_t *)((u32)module->mod_end + 1);
  10148e:	8b 5b 04             	mov    ebx,DWORD PTR [ebx+0x4]
    for(size_t i = 0; i < minfo->mods_count; i++)
  101491:	8b 47 14             	mov    eax,DWORD PTR [edi+0x14]
  101494:	83 c4 10             	add    esp,0x10
        module = (multiboot_module_t *)((u32)module->mod_end + 1);
  101497:	83 c3 01             	add    ebx,0x1
    for(size_t i = 0; i < minfo->mods_count; i++)
  10149a:	39 c6                	cmp    esi,eax
  10149c:	72 aa                	jb     101448 <modules_setup+0x48>
    }

    log("%d modules loaded!", minfo->mods_count);
  10149e:	83 ec 08             	sub    esp,0x8
  1014a1:	50                   	push   eax
  1014a2:	68 51 1f 11 00       	push   0x111f51
  1014a7:	e8 f4 01 00 00       	call   1016a0 <log>
  1014ac:	83 c4 10             	add    esp,0x10
  1014af:	5b                   	pop    ebx
  1014b0:	5e                   	pop    esi
  1014b1:	5f                   	pop    edi
  1014b2:	c3                   	ret    
  1014b3:	90                   	nop
  1014b4:	8d 74 26 00          	lea    esi,[esi+eiz*1+0x0]
        ramdisk_load(module);
  1014b8:	83 ec 0c             	sub    esp,0xc
    for(size_t i = 0; i < minfo->mods_count; i++)
  1014bb:	83 c6 01             	add    esi,0x1
        ramdisk_load(module);
  1014be:	53                   	push   ebx
  1014bf:	e8 0c 01 00 00       	call   1015d0 <ramdisk_load>
        module = (multiboot_module_t *)((u32)module->mod_end + 1);
  1014c4:	8b 5b 04             	mov    ebx,DWORD PTR [ebx+0x4]
    for(size_t i = 0; i < minfo->mods_count; i++)
  1014c7:	8b 47 14             	mov    eax,DWORD PTR [edi+0x14]
  1014ca:	83 c4 10             	add    esp,0x10
        module = (multiboot_module_t *)((u32)module->mod_end + 1);
  1014cd:	83 c3 01             	add    ebx,0x1
    for(size_t i = 0; i < minfo->mods_count; i++)
  1014d0:	39 f0                	cmp    eax,esi
  1014d2:	0f 87 70 ff ff ff    	ja     101448 <modules_setup+0x48>
  1014d8:	eb c4                	jmp    10149e <modules_setup+0x9e>
  1014da:	66 90                	xchg   ax,ax
  1014dc:	66 90                	xchg   ax,ax
  1014de:	66 90                	xchg   ax,ax

001014e0 <rd_file_close>:
}

void rd_file_close(file_t *file)
{
    UNUSED(file);
}
  1014e0:	f3 c3                	repz ret 
  1014e2:	8d b4 26 00 00 00 00 	lea    esi,[esi+eiz*1+0x0]
  1014e9:	8d bc 27 00 00 00 00 	lea    edi,[edi+eiz*1+0x0]

001014f0 <rd_file_open>:
{
  1014f0:	83 c4 80             	add    esp,0xffffff80
    return tar_read(ramdisk, &block, file->inode);
  1014f3:	8b 84 24 84 00 00 00 	mov    eax,DWORD PTR [esp+0x84]
  1014fa:	ff 70 04             	push   DWORD PTR [eax+0x4]
  1014fd:	8d 44 24 0c          	lea    eax,[esp+0xc]
  101501:	50                   	push   eax
  101502:	ff 35 00 80 11 00    	push   DWORD PTR ds:0x118000
  101508:	e8 d3 64 00 00       	call   1079e0 <tar_read>
}
  10150d:	81 c4 8c 00 00 00    	add    esp,0x8c
    return tar_read(ramdisk, &block, file->inode);
  101513:	0f b6 c0             	movzx  eax,al
}
  101516:	c3                   	ret    
  101517:	89 f6                	mov    esi,esi
  101519:	8d bc 27 00 00 00 00 	lea    edi,[edi+eiz*1+0x0]

00101520 <rd_file_stat>:
    UNUSED(file + offset + (int)buffer + n);
    return 0;
}

void rd_file_stat(file_t *file, fstat_t *stat)
{
  101520:	53                   	push   ebx
  101521:	83 ec 7c             	sub    esp,0x7c
    tar_block_t block;
    tar_read(ramdisk, &block, file->inode);
  101524:	8b 84 24 84 00 00 00 	mov    eax,DWORD PTR [esp+0x84]
{
  10152b:	8b 9c 24 88 00 00 00 	mov    ebx,DWORD PTR [esp+0x88]
    tar_read(ramdisk, &block, file->inode);
  101532:	ff 70 04             	push   DWORD PTR [eax+0x4]
  101535:	8d 44 24 0c          	lea    eax,[esp+0xc]
  101539:	50                   	push   eax
  10153a:	ff 35 00 80 11 00    	push   DWORD PTR ds:0x118000
  101540:	e8 9b 64 00 00       	call   1079e0 <tar_read>

    stat->size = block.size;
  101545:	8b 44 24 78          	mov    eax,DWORD PTR [esp+0x78]
    stat->read = 1;
  101549:	c7 43 04 01 00 00 00 	mov    DWORD PTR [ebx+0x4],0x1
    stat->write = 0;
  101550:	c7 43 08 00 00 00 00 	mov    DWORD PTR [ebx+0x8],0x0
    stat->size = block.size;
  101557:	89 03                	mov    DWORD PTR [ebx],eax
}
  101559:	81 c4 88 00 00 00    	add    esp,0x88
  10155f:	5b                   	pop    ebx
  101560:	c3                   	ret    
  101561:	eb 0d                	jmp    101570 <rd_file_read>
  101563:	90                   	nop
  101564:	90                   	nop
  101565:	90                   	nop
  101566:	90                   	nop
  101567:	90                   	nop
  101568:	90                   	nop
  101569:	90                   	nop
  10156a:	90                   	nop
  10156b:	90                   	nop
  10156c:	90                   	nop
  10156d:	90                   	nop
  10156e:	90                   	nop
  10156f:	90                   	nop

00101570 <rd_file_read>:
{
  101570:	56                   	push   esi
  101571:	53                   	push   ebx
  101572:	83 ec 78             	sub    esp,0x78
    tar_read(ramdisk, &block, file->inode);
  101575:	8b 84 24 84 00 00 00 	mov    eax,DWORD PTR [esp+0x84]
{
  10157c:	8b b4 24 88 00 00 00 	mov    esi,DWORD PTR [esp+0x88]
  101583:	8b 9c 24 90 00 00 00 	mov    ebx,DWORD PTR [esp+0x90]
    tar_read(ramdisk, &block, file->inode);
  10158a:	ff 70 04             	push   DWORD PTR [eax+0x4]
  10158d:	8d 44 24 0c          	lea    eax,[esp+0xc]
  101591:	50                   	push   eax
  101592:	ff 35 00 80 11 00    	push   DWORD PTR ds:0x118000
  101598:	e8 43 64 00 00       	call   1079e0 <tar_read>
    n = min(block.size - min(offset, block.size), n);
  10159d:	8b 44 24 78          	mov    eax,DWORD PTR [esp+0x78]
  1015a1:	83 c4 0c             	add    esp,0xc
  1015a4:	89 c2                	mov    edx,eax
  1015a6:	29 f2                	sub    edx,esi
  1015a8:	39 d0                	cmp    eax,edx
  1015aa:	0f 47 c6             	cmova  eax,esi
  1015ad:	39 d8                	cmp    eax,ebx
  1015af:	0f 46 d8             	cmovbe ebx,eax
    memcpy(buffer, block.data + offset, n);
  1015b2:	53                   	push   ebx
  1015b3:	03 74 24 74          	add    esi,DWORD PTR [esp+0x74]
  1015b7:	56                   	push   esi
  1015b8:	ff b4 24 94 00 00 00 	push   DWORD PTR [esp+0x94]
  1015bf:	e8 4c 40 00 00       	call   105610 <memcpy>
}
  1015c4:	81 c4 84 00 00 00    	add    esp,0x84
  1015ca:	89 d8                	mov    eax,ebx
  1015cc:	5b                   	pop    ebx
  1015cd:	5e                   	pop    esi
  1015ce:	c3                   	ret    
  1015cf:	90                   	nop

001015d0 <ramdisk_load>:
{
  1015d0:	56                   	push   esi
  1015d1:	53                   	push   ebx
  1015d2:	83 ec 7c             	sub    esp,0x7c
  1015d5:	8b 9c 24 88 00 00 00 	mov    ebx,DWORD PTR [esp+0x88]
    log("Loading ramdisk at 0x%x...", module->mod_start);
  1015dc:	ff 33                	push   DWORD PTR [ebx]
  1015de:	68 64 1f 11 00       	push   0x111f64
  1015e3:	e8 b8 00 00 00       	call   1016a0 <log>
    ramdisk = (void *)module->mod_start;
  1015e8:	8b 03                	mov    eax,DWORD PTR [ebx]
    for (size_t i = 0; tar_read(ramdisk, &block, i); i++)
  1015ea:	83 c4 10             	add    esp,0x10
    ramdisk_fs.file_open = rd_file_open;
  1015ed:	c7 05 04 80 11 00 f0 	mov    DWORD PTR ds:0x118004,0x1014f0
  1015f4:	14 10 00 
    ramdisk_fs.file_close = rd_file_close;
  1015f7:	c7 05 08 80 11 00 e0 	mov    DWORD PTR ds:0x118008,0x1014e0
  1015fe:	14 10 00 
    ramdisk_fs.file_read = rd_file_read;
  101601:	c7 05 0c 80 11 00 70 	mov    DWORD PTR ds:0x11800c,0x101570
  101608:	15 10 00 
    for (size_t i = 0; tar_read(ramdisk, &block, i); i++)
  10160b:	31 db                	xor    ebx,ebx
    ramdisk_fs.file_stat = rd_file_stat;
  10160d:	c7 05 14 80 11 00 20 	mov    DWORD PTR ds:0x118014,0x101520
  101614:	15 10 00 
  101617:	8d 74 24 04          	lea    esi,[esp+0x4]
    ramdisk = (void *)module->mod_start;
  10161b:	a3 00 80 11 00       	mov    ds:0x118000,eax
    for (size_t i = 0; tar_read(ramdisk, &block, i); i++)
  101620:	eb 24                	jmp    101646 <ramdisk_load+0x76>
  101622:	8d b6 00 00 00 00    	lea    esi,[esi+0x0]
            file_create(NULL, block.name, &ramdisk_fs, 0, i);
  101628:	83 ec 0c             	sub    esp,0xc
  10162b:	53                   	push   ebx
  10162c:	6a 00                	push   0x0
  10162e:	68 04 80 11 00       	push   0x118004
  101633:	56                   	push   esi
  101634:	6a 00                	push   0x0
  101636:	e8 75 f7 ff ff       	call   100db0 <file_create>
  10163b:	83 c4 20             	add    esp,0x20
  10163e:	a1 00 80 11 00       	mov    eax,ds:0x118000
    for (size_t i = 0; tar_read(ramdisk, &block, i); i++)
  101643:	83 c3 01             	add    ebx,0x1
  101646:	83 ec 04             	sub    esp,0x4
  101649:	53                   	push   ebx
  10164a:	56                   	push   esi
  10164b:	50                   	push   eax
  10164c:	e8 8f 63 00 00       	call   1079e0 <tar_read>
  101651:	83 c4 10             	add    esp,0x10
  101654:	84 c0                	test   al,al
  101656:	74 28                	je     101680 <ramdisk_load+0xb0>
        if (block.name[strlen(block.name) - 1] == '/')
  101658:	83 ec 0c             	sub    esp,0xc
  10165b:	56                   	push   esi
  10165c:	e8 5f 4a 00 00       	call   1060c0 <strlen>
  101661:	83 c4 10             	add    esp,0x10
  101664:	80 7c 04 03 2f       	cmp    BYTE PTR [esp+eax*1+0x3],0x2f
  101669:	75 bd                	jne    101628 <ramdisk_load+0x58>
            directory_create(NULL, block.name, 0);
  10166b:	83 ec 04             	sub    esp,0x4
  10166e:	6a 00                	push   0x0
  101670:	56                   	push   esi
  101671:	6a 00                	push   0x0
  101673:	e8 a8 f2 ff ff       	call   100920 <directory_create>
  101678:	83 c4 10             	add    esp,0x10
  10167b:	eb c1                	jmp    10163e <ramdisk_load+0x6e>
  10167d:	8d 76 00             	lea    esi,[esi+0x0]
}
  101680:	83 c4 74             	add    esp,0x74
  101683:	5b                   	pop    ebx
  101684:	5e                   	pop    esi
  101685:	c3                   	ret    
  101686:	8d 76 00             	lea    esi,[esi+0x0]
  101689:	8d bc 27 00 00 00 00 	lea    edi,[edi+eiz*1+0x0]

00101690 <rd_file_write>:
}
  101690:	31 c0                	xor    eax,eax
  101692:	c3                   	ret    
  101693:	66 90                	xchg   ax,ax
  101695:	66 90                	xchg   ax,ax
  101697:	66 90                	xchg   ax,ax
  101699:	66 90                	xchg   ax,ax
  10169b:	66 90                	xchg   ax,ax
  10169d:	66 90                	xchg   ax,ax
  10169f:	90                   	nop

001016a0 <log>:
#include <stdio.h>
#include "kernel/logger.h"
#include "kernel/time.h"

void log(const char *message, ...)
{
  1016a0:	56                   	push   esi
  1016a1:	53                   	push   ebx
  1016a2:	83 ec 10             	sub    esp,0x10
    va_list va;
    va_start(va, message);
    
    printf("[%d:%d:%d] ", time_get(TIME_HOUR), time_get(TIME_MINUTE), time_get(TIME_SECOND));
  1016a5:	6a 00                	push   0x0
  1016a7:	e8 a4 38 00 00       	call   104f50 <time_get>
  1016ac:	c7 04 24 02 00 00 00 	mov    DWORD PTR [esp],0x2
  1016b3:	89 c6                	mov    esi,eax
  1016b5:	e8 96 38 00 00       	call   104f50 <time_get>
  1016ba:	89 c3                	mov    ebx,eax
  1016bc:	c7 04 24 04 00 00 00 	mov    DWORD PTR [esp],0x4
  1016c3:	e8 88 38 00 00       	call   104f50 <time_get>
  1016c8:	56                   	push   esi
  1016c9:	53                   	push   ebx
  1016ca:	50                   	push   eax
  1016cb:	68 7f 1f 11 00       	push   0x111f7f
  1016d0:	e8 9b 4f 00 00       	call   106670 <printf>
    vprintf(message, va);
  1016d5:	83 c4 18             	add    esp,0x18
  1016d8:	8d 44 24 1c          	lea    eax,[esp+0x1c]
  1016dc:	50                   	push   eax
  1016dd:	ff 74 24 1c          	push   DWORD PTR [esp+0x1c]
  1016e1:	e8 ba 51 00 00       	call   1068a0 <vprintf>
    putchar('\n');
  1016e6:	c7 04 24 0a 00 00 00 	mov    DWORD PTR [esp],0xa
  1016ed:	e8 5e 61 00 00       	call   107850 <putchar>
    
    va_end(va);
  1016f2:	83 c4 14             	add    esp,0x14
  1016f5:	5b                   	pop    ebx
  1016f6:	5e                   	pop    esi
  1016f7:	c3                   	ret    
  1016f8:	66 90                	xchg   ax,ax
  1016fa:	66 90                	xchg   ax,ax
  1016fc:	66 90                	xchg   ax,ax
  1016fe:	66 90                	xchg   ax,ax

00101700 <shedule>:
{
    return memory_unmap(process->pdir, addr, count);
}

esp_t shedule(esp_t esp, context_t *context)
{
  101700:	53                   	push   ebx
  101701:	83 ec 10             	sub    esp,0x10
    ticks++;

    UNUSED(context);

    // Save the old context
    running->esp = esp;
  101704:	a1 1c 80 11 00       	mov    eax,ds:0x11801c
    ticks++;
  101709:	83 05 1c ae 23 00 01 	add    DWORD PTR ds:0x23ae1c,0x1
    running->esp = esp;
  101710:	8b 54 24 18          	mov    edx,DWORD PTR [esp+0x18]
  101714:	89 50 08             	mov    DWORD PTR [eax+0x8],edx

    if (!list_containe(dead, (int)running))
  101717:	50                   	push   eax
  101718:	ff 35 20 80 11 00    	push   DWORD PTR ds:0x118020
  10171e:	e8 ad 6b 00 00       	call   1082d0 <list_containe>
  101723:	83 c4 10             	add    esp,0x10
  101726:	85 c0                	test   eax,eax
  101728:	74 76                	je     1017a0 <shedule+0xa0>
    {
        list_pushback(waiting, (int)running);
    }

    FOREACH(i, dead)
  10172a:	a1 20 80 11 00       	mov    eax,ds:0x118020
  10172f:	8b 58 04             	mov    ebx,DWORD PTR [eax+0x4]
  101732:	85 db                	test   ebx,ebx
  101734:	74 34                	je     10176a <shedule+0x6a>
  101736:	8d 76 00             	lea    esi,[esi+0x0]
  101739:	8d bc 27 00 00 00 00 	lea    edi,[edi+eiz*1+0x0]
    {
        thread_t *deadthread = (thread_t *)i;
        list_remove(waiting, (int)deadthread);
  101740:	83 ec 08             	sub    esp,0x8
  101743:	53                   	push   ebx
  101744:	ff 35 24 80 11 00    	push   DWORD PTR ds:0x118024
  10174a:	e8 f1 6a 00 00       	call   108240 <list_remove>
    free(thread->stack);
  10174f:	58                   	pop    eax
  101750:	ff 73 04             	push   DWORD PTR [ebx+0x4]
  101753:	e8 18 5d 00 00       	call   107470 <free>
    free(thread);
  101758:	89 1c 24             	mov    DWORD PTR [esp],ebx
  10175b:	e8 10 5d 00 00       	call   107470 <free>
    FOREACH(i, dead)
  101760:	8b 5b 04             	mov    ebx,DWORD PTR [ebx+0x4]
  101763:	83 c4 10             	add    esp,0x10
  101766:	85 db                	test   ebx,ebx
  101768:	75 d6                	jne    101740 <shedule+0x40>
        thread_free(deadthread);
    }

    list_pop(waiting, (int *)&running);
  10176a:	83 ec 08             	sub    esp,0x8
  10176d:	68 1c 80 11 00       	push   0x11801c
  101772:	ff 35 24 80 11 00    	push   DWORD PTR ds:0x118024
  101778:	e8 93 69 00 00       	call   108110 <list_pop>
    set_kernel_stack((uint)running->stack + STACK_SIZE);
  10177d:	a1 1c 80 11 00       	mov    eax,ds:0x11801c
  101782:	8b 40 04             	mov    eax,DWORD PTR [eax+0x4]
  101785:	05 00 10 00 00       	add    eax,0x1000
  10178a:	89 04 24             	mov    DWORD PTR [esp],eax
  10178d:	e8 fe 30 00 00       	call   104890 <set_kernel_stack>

    // Load the new context
    return running->esp;
  101792:	a1 1c 80 11 00       	mov    eax,ds:0x11801c
  101797:	8b 40 08             	mov    eax,DWORD PTR [eax+0x8]
}
  10179a:	83 c4 18             	add    esp,0x18
  10179d:	5b                   	pop    ebx
  10179e:	c3                   	ret    
  10179f:	90                   	nop
        list_pushback(waiting, (int)running);
  1017a0:	83 ec 08             	sub    esp,0x8
  1017a3:	ff 35 1c 80 11 00    	push   DWORD PTR ds:0x11801c
  1017a9:	ff 35 24 80 11 00    	push   DWORD PTR ds:0x118024
  1017af:	e8 cc 69 00 00       	call   108180 <list_pushback>
  1017b4:	83 c4 10             	add    esp,0x10
  1017b7:	e9 6e ff ff ff       	jmp    10172a <shedule+0x2a>
  1017bc:	8d 74 26 00          	lea    esi,[esi+eiz*1+0x0]

001017c0 <thread_alloc>:
{
  1017c0:	56                   	push   esi
  1017c1:	53                   	push   ebx
  1017c2:	83 ec 10             	sub    esp,0x10
  1017c5:	8b 74 24 1c          	mov    esi,DWORD PTR [esp+0x1c]
    thread_t *thread = (thread_t *)malloc(sizeof(thread_t));
  1017c9:	6a 14                	push   0x14
  1017cb:	e8 d0 57 00 00       	call   106fa0 <malloc>
    memset(thread, 0, sizeof(thread_t));
  1017d0:	83 c4 0c             	add    esp,0xc
    thread_t *thread = (thread_t *)malloc(sizeof(thread_t));
  1017d3:	89 c3                	mov    ebx,eax
    memset(thread, 0, sizeof(thread_t));
  1017d5:	6a 14                	push   0x14
  1017d7:	6a 00                	push   0x0
  1017d9:	50                   	push   eax
  1017da:	e8 f1 3e 00 00       	call   1056d0 <memset>
    atomic_begin();
  1017df:	e8 5c 66 00 00       	call   107e40 <atomic_begin>
    thread->id = TID++;
  1017e4:	a1 04 ae 23 00       	mov    eax,ds:0x23ae04
  1017e9:	8d 50 01             	lea    edx,[eax+0x1]
  1017ec:	89 15 04 ae 23 00    	mov    DWORD PTR ds:0x23ae04,edx
  1017f2:	89 03                	mov    DWORD PTR [ebx],eax
    atomic_end();
  1017f4:	e8 67 66 00 00       	call   107e60 <atomic_end>
    thread->stack = malloc(STACK_SIZE);
  1017f9:	c7 04 24 00 10 00 00 	mov    DWORD PTR [esp],0x1000
  101800:	e8 9b 57 00 00       	call   106fa0 <malloc>
    if (user)
  101805:	83 c4 10             	add    esp,0x10
  101808:	8b 4c 24 14          	mov    ecx,DWORD PTR [esp+0x14]
    thread->esp -= sizeof(context_t);
  10180c:	8d 90 bc 0f 00 00    	lea    edx,[eax+0xfbc]
    thread->stack = malloc(STACK_SIZE);
  101812:	89 43 04             	mov    DWORD PTR [ebx+0x4],eax
    thread->entry = entry;
  101815:	89 73 0c             	mov    DWORD PTR [ebx+0xc],esi
    thread->esp -= sizeof(context_t);
  101818:	89 53 08             	mov    DWORD PTR [ebx+0x8],edx
    context->eflags = 0x202;
  10181b:	c7 42 40 02 02 00 00 	mov    DWORD PTR [edx+0x40],0x202
    if (user)
  101822:	85 c9                	test   ecx,ecx
    context->eip = (u32)entry;
  101824:	89 72 38             	mov    DWORD PTR [edx+0x38],esi
    if (user)
  101827:	75 37                	jne    101860 <thread_alloc+0xa0>
        context->cs = 0x08;
  101829:	c7 42 3c 08 00 00 00 	mov    DWORD PTR [edx+0x3c],0x8
        context->ds = 0x10;
  101830:	c7 42 0c 10 00 00 00 	mov    DWORD PTR [edx+0xc],0x10
        context->es = 0x10;
  101837:	c7 42 08 10 00 00 00 	mov    DWORD PTR [edx+0x8],0x10
        context->fs = 0x10;
  10183e:	c7 42 04 10 00 00 00 	mov    DWORD PTR [edx+0x4],0x10
        context->gs = 0x10;
  101845:	c7 80 bc 0f 00 00 10 	mov    DWORD PTR [eax+0xfbc],0x10
  10184c:	00 00 00 
}
  10184f:	83 c4 04             	add    esp,0x4
  101852:	89 d8                	mov    eax,ebx
  101854:	5b                   	pop    ebx
  101855:	5e                   	pop    esi
  101856:	c3                   	ret    
  101857:	89 f6                	mov    esi,esi
  101859:	8d bc 27 00 00 00 00 	lea    edi,[edi+eiz*1+0x0]
        context->cs = 0x18;
  101860:	c7 42 3c 18 00 00 00 	mov    DWORD PTR [edx+0x3c],0x18
        context->ds = 0x20;
  101867:	c7 42 0c 20 00 00 00 	mov    DWORD PTR [edx+0xc],0x20
        context->es = 0x20;
  10186e:	c7 42 08 20 00 00 00 	mov    DWORD PTR [edx+0x8],0x20
        context->fs = 0x20;
  101875:	c7 42 04 20 00 00 00 	mov    DWORD PTR [edx+0x4],0x20
        context->gs = 0x20;
  10187c:	c7 80 bc 0f 00 00 20 	mov    DWORD PTR [eax+0xfbc],0x20
  101883:	00 00 00 
}
  101886:	83 c4 04             	add    esp,0x4
  101889:	89 d8                	mov    eax,ebx
  10188b:	5b                   	pop    ebx
  10188c:	5e                   	pop    esi
  10188d:	c3                   	ret    
  10188e:	66 90                	xchg   ax,ax

00101890 <thread_free>:
{
  101890:	53                   	push   ebx
  101891:	83 ec 14             	sub    esp,0x14
  101894:	8b 5c 24 1c          	mov    ebx,DWORD PTR [esp+0x1c]
    free(thread->stack);
  101898:	ff 73 04             	push   DWORD PTR [ebx+0x4]
  10189b:	e8 d0 5b 00 00       	call   107470 <free>
    free(thread);
  1018a0:	89 5c 24 20          	mov    DWORD PTR [esp+0x20],ebx
}
  1018a4:	83 c4 18             	add    esp,0x18
  1018a7:	5b                   	pop    ebx
    free(thread);
  1018a8:	e9 c3 5b 00 00       	jmp    107470 <free>
  1018ad:	8d 76 00             	lea    esi,[esi+0x0]

001018b0 <process_alloc>:
{
  1018b0:	56                   	push   esi
  1018b1:	53                   	push   ebx
  1018b2:	83 ec 10             	sub    esp,0x10
  1018b5:	8b 74 24 20          	mov    esi,DWORD PTR [esp+0x20]
    process_t *process = (process_t *)malloc(sizeof(process_t));
  1018b9:	68 90 00 00 00       	push   0x90
  1018be:	e8 dd 56 00 00       	call   106fa0 <malloc>
  1018c3:	89 c3                	mov    ebx,eax
    process->id = PID++;
  1018c5:	a1 08 ae 23 00       	mov    eax,ds:0x23ae08
    strncpy(process->name, name, PROCNAME_SIZE);
  1018ca:	83 c4 0c             	add    esp,0xc
    process->id = PID++;
  1018cd:	8d 50 01             	lea    edx,[eax+0x1]
  1018d0:	89 15 08 ae 23 00    	mov    DWORD PTR ds:0x23ae08,edx
  1018d6:	89 03                	mov    DWORD PTR [ebx],eax
    strncpy(process->name, name, PROCNAME_SIZE);
  1018d8:	8d 43 04             	lea    eax,[ebx+0x4]
  1018db:	68 80 00 00 00       	push   0x80
  1018e0:	ff 74 24 18          	push   DWORD PTR [esp+0x18]
  1018e4:	50                   	push   eax
  1018e5:	e8 56 45 00 00       	call   105e40 <strncpy>
    process->user = user;
  1018ea:	89 f0                	mov    eax,esi
  1018ec:	88 83 84 00 00 00    	mov    BYTE PTR [ebx+0x84],al
    process->threads = list_alloc();
  1018f2:	e8 c9 65 00 00       	call   107ec0 <list_alloc>
    if (user)
  1018f7:	83 c4 10             	add    esp,0x10
  1018fa:	85 f6                	test   esi,esi
    process->threads = list_alloc();
  1018fc:	89 83 88 00 00 00    	mov    DWORD PTR [ebx+0x88],eax
    if (user)
  101902:	75 1c                	jne    101920 <process_alloc+0x70>
        process->pdir = memory_kpdir();
  101904:	e8 77 13 00 00       	call   102c80 <memory_kpdir>
  101909:	89 83 8c 00 00 00    	mov    DWORD PTR [ebx+0x8c],eax
}
  10190f:	83 c4 04             	add    esp,0x4
  101912:	89 d8                	mov    eax,ebx
  101914:	5b                   	pop    ebx
  101915:	5e                   	pop    esi
  101916:	c3                   	ret    
  101917:	89 f6                	mov    esi,esi
  101919:	8d bc 27 00 00 00 00 	lea    edi,[edi+eiz*1+0x0]
        process->pdir = memory_alloc_pdir();
  101920:	e8 7b 15 00 00       	call   102ea0 <memory_alloc_pdir>
  101925:	89 83 8c 00 00 00    	mov    DWORD PTR [ebx+0x8c],eax
}
  10192b:	83 c4 04             	add    esp,0x4
  10192e:	89 d8                	mov    eax,ebx
  101930:	5b                   	pop    ebx
  101931:	5e                   	pop    esi
  101932:	c3                   	ret    
  101933:	8d b6 00 00 00 00    	lea    esi,[esi+0x0]
  101939:	8d bc 27 00 00 00 00 	lea    edi,[edi+eiz*1+0x0]

00101940 <process_free>:
{
  101940:	56                   	push   esi
  101941:	53                   	push   ebx
  101942:	83 ec 04             	sub    esp,0x4
  101945:	8b 5c 24 10          	mov    ebx,DWORD PTR [esp+0x10]
    atomic_begin();
  101949:	e8 f2 64 00 00       	call   107e40 <atomic_begin>
    if (process->pdir != memory_kpdir())
  10194e:	8b b3 8c 00 00 00    	mov    esi,DWORD PTR [ebx+0x8c]
  101954:	e8 27 13 00 00       	call   102c80 <memory_kpdir>
  101959:	39 c6                	cmp    esi,eax
  10195b:	74 11                	je     10196e <process_free+0x2e>
        memory_free_pdir(process->pdir);
  10195d:	83 ec 0c             	sub    esp,0xc
  101960:	ff b3 8c 00 00 00    	push   DWORD PTR [ebx+0x8c]
  101966:	e8 55 16 00 00       	call   102fc0 <memory_free_pdir>
  10196b:	83 c4 10             	add    esp,0x10
    list_free(process->threads);
  10196e:	83 ec 0c             	sub    esp,0xc
  101971:	ff b3 88 00 00 00    	push   DWORD PTR [ebx+0x88]
  101977:	e8 74 65 00 00       	call   107ef0 <list_free>
    free(process);
  10197c:	89 1c 24             	mov    DWORD PTR [esp],ebx
  10197f:	e8 ec 5a 00 00       	call   107470 <free>
}
  101984:	83 c4 14             	add    esp,0x14
  101987:	5b                   	pop    ebx
  101988:	5e                   	pop    esi
    atomic_end();
  101989:	e9 d2 64 00 00       	jmp    107e60 <atomic_end>
  10198e:	66 90                	xchg   ax,ax

00101990 <tasking_setup>:
{
  101990:	53                   	push   ebx
  101991:	83 ec 08             	sub    esp,0x8
    waiting = list_alloc();
  101994:	e8 27 65 00 00       	call   107ec0 <list_alloc>
  101999:	a3 24 80 11 00       	mov    ds:0x118024,eax
    dead = list_alloc();
  10199e:	e8 1d 65 00 00       	call   107ec0 <list_alloc>
  1019a3:	a3 20 80 11 00       	mov    ds:0x118020,eax
    process = list_alloc();
  1019a8:	e8 13 65 00 00       	call   107ec0 <list_alloc>
    thread_t *thread = (thread_t *)malloc(sizeof(thread_t));
  1019ad:	83 ec 0c             	sub    esp,0xc
    process = list_alloc();
  1019b0:	a3 18 80 11 00       	mov    ds:0x118018,eax
    thread_t *thread = (thread_t *)malloc(sizeof(thread_t));
  1019b5:	6a 14                	push   0x14
  1019b7:	e8 e4 55 00 00       	call   106fa0 <malloc>
    memset(thread, 0, sizeof(thread_t));
  1019bc:	83 c4 0c             	add    esp,0xc
    thread_t *thread = (thread_t *)malloc(sizeof(thread_t));
  1019bf:	89 c3                	mov    ebx,eax
    memset(thread, 0, sizeof(thread_t));
  1019c1:	6a 14                	push   0x14
  1019c3:	6a 00                	push   0x0
  1019c5:	50                   	push   eax
  1019c6:	e8 05 3d 00 00       	call   1056d0 <memset>
    atomic_begin();
  1019cb:	e8 70 64 00 00       	call   107e40 <atomic_begin>
    thread->id = TID++;
  1019d0:	a1 04 ae 23 00       	mov    eax,ds:0x23ae04
  1019d5:	8d 50 01             	lea    edx,[eax+0x1]
  1019d8:	89 15 04 ae 23 00    	mov    DWORD PTR ds:0x23ae04,edx
  1019de:	89 03                	mov    DWORD PTR [ebx],eax
    atomic_end();
  1019e0:	e8 7b 64 00 00       	call   107e60 <atomic_end>
    thread->stack = malloc(STACK_SIZE);
  1019e5:	c7 04 24 00 10 00 00 	mov    DWORD PTR [esp],0x1000
  1019ec:	e8 af 55 00 00       	call   106fa0 <malloc>
    thread->esp -= sizeof(context_t);
  1019f1:	8d 90 bc 0f 00 00    	lea    edx,[eax+0xfbc]
    thread->stack = malloc(STACK_SIZE);
  1019f7:	89 43 04             	mov    DWORD PTR [ebx+0x4],eax
    thread->entry = entry;
  1019fa:	c7 43 0c 00 00 00 00 	mov    DWORD PTR [ebx+0xc],0x0
    thread->esp -= sizeof(context_t);
  101a01:	89 53 08             	mov    DWORD PTR [ebx+0x8],edx
    context->eflags = 0x202;
  101a04:	c7 80 fc 0f 00 00 02 	mov    DWORD PTR [eax+0xffc],0x202
  101a0b:	02 00 00 
    context->eip = (u32)entry;
  101a0e:	c7 80 f4 0f 00 00 00 	mov    DWORD PTR [eax+0xff4],0x0
  101a15:	00 00 00 
        context->cs = 0x08;
  101a18:	c7 80 f8 0f 00 00 08 	mov    DWORD PTR [eax+0xff8],0x8
  101a1f:	00 00 00 
        context->ds = 0x10;
  101a22:	c7 80 c8 0f 00 00 10 	mov    DWORD PTR [eax+0xfc8],0x10
  101a29:	00 00 00 
        context->es = 0x10;
  101a2c:	c7 80 c4 0f 00 00 10 	mov    DWORD PTR [eax+0xfc4],0x10
  101a33:	00 00 00 
        context->fs = 0x10;
  101a36:	c7 80 c0 0f 00 00 10 	mov    DWORD PTR [eax+0xfc0],0x10
  101a3d:	00 00 00 
        context->gs = 0x10;
  101a40:	c7 80 bc 0f 00 00 10 	mov    DWORD PTR [eax+0xfbc],0x10
  101a47:	00 00 00 
    atomic_begin();
  101a4a:	e8 f1 63 00 00       	call   107e40 <atomic_begin>
    if (running)
  101a4f:	a1 1c 80 11 00       	mov    eax,ds:0x11801c
  101a54:	83 c4 10             	add    esp,0x10
  101a57:	85 c0                	test   eax,eax
  101a59:	75 25                	jne    101a80 <tasking_setup+0xf0>
        running = thread;
  101a5b:	89 1d 1c 80 11 00    	mov    DWORD PTR ds:0x11801c,ebx
    atomic_end();
  101a61:	e8 fa 63 00 00       	call   107e60 <atomic_end>
    irq_register(0, (irq_handler_t)&shedule);
  101a66:	83 ec 08             	sub    esp,0x8
  101a69:	68 00 17 10 00       	push   0x101700
  101a6e:	6a 00                	push   0x0
  101a70:	e8 0b 29 00 00       	call   104380 <irq_register>
}
  101a75:	83 c4 18             	add    esp,0x18
  101a78:	5b                   	pop    ebx
  101a79:	c3                   	ret    
  101a7a:	8d b6 00 00 00 00    	lea    esi,[esi+0x0]
        list_pushback(waiting, (int)thread);
  101a80:	83 ec 08             	sub    esp,0x8
  101a83:	53                   	push   ebx
  101a84:	ff 35 24 80 11 00    	push   DWORD PTR ds:0x118024
  101a8a:	e8 f1 66 00 00       	call   108180 <list_pushback>
  101a8f:	83 c4 10             	add    esp,0x10
  101a92:	eb cd                	jmp    101a61 <tasking_setup+0xd1>
  101a94:	8d b6 00 00 00 00    	lea    esi,[esi+0x0]
  101a9a:	8d bf 00 00 00 00    	lea    edi,[edi+0x0]

00101aa0 <thread_create>:
{
  101aa0:	56                   	push   esi
  101aa1:	53                   	push   ebx
  101aa2:	83 ec 10             	sub    esp,0x10
  101aa5:	8b 74 24 1c          	mov    esi,DWORD PTR [esp+0x1c]
    thread_t *thread = (thread_t *)malloc(sizeof(thread_t));
  101aa9:	6a 14                	push   0x14
  101aab:	e8 f0 54 00 00       	call   106fa0 <malloc>
    memset(thread, 0, sizeof(thread_t));
  101ab0:	83 c4 0c             	add    esp,0xc
    thread_t *thread = (thread_t *)malloc(sizeof(thread_t));
  101ab3:	89 c3                	mov    ebx,eax
    memset(thread, 0, sizeof(thread_t));
  101ab5:	6a 14                	push   0x14
  101ab7:	6a 00                	push   0x0
  101ab9:	50                   	push   eax
  101aba:	e8 11 3c 00 00       	call   1056d0 <memset>
    atomic_begin();
  101abf:	e8 7c 63 00 00       	call   107e40 <atomic_begin>
    thread->id = TID++;
  101ac4:	a1 04 ae 23 00       	mov    eax,ds:0x23ae04
  101ac9:	8d 50 01             	lea    edx,[eax+0x1]
  101acc:	89 15 04 ae 23 00    	mov    DWORD PTR ds:0x23ae04,edx
  101ad2:	89 03                	mov    DWORD PTR [ebx],eax
    atomic_end();
  101ad4:	e8 87 63 00 00       	call   107e60 <atomic_end>
    thread->stack = malloc(STACK_SIZE);
  101ad9:	c7 04 24 00 10 00 00 	mov    DWORD PTR [esp],0x1000
  101ae0:	e8 bb 54 00 00       	call   106fa0 <malloc>
    thread->esp -= sizeof(context_t);
  101ae5:	8d 90 bc 0f 00 00    	lea    edx,[eax+0xfbc]
    thread->stack = malloc(STACK_SIZE);
  101aeb:	89 43 04             	mov    DWORD PTR [ebx+0x4],eax
    thread->entry = entry;
  101aee:	89 73 0c             	mov    DWORD PTR [ebx+0xc],esi
    thread->esp -= sizeof(context_t);
  101af1:	89 53 08             	mov    DWORD PTR [ebx+0x8],edx
    context->eflags = 0x202;
  101af4:	c7 80 fc 0f 00 00 02 	mov    DWORD PTR [eax+0xffc],0x202
  101afb:	02 00 00 
    context->eip = (u32)entry;
  101afe:	89 b0 f4 0f 00 00    	mov    DWORD PTR [eax+0xff4],esi
        context->cs = 0x08;
  101b04:	c7 80 f8 0f 00 00 08 	mov    DWORD PTR [eax+0xff8],0x8
  101b0b:	00 00 00 
        context->ds = 0x10;
  101b0e:	c7 80 c8 0f 00 00 10 	mov    DWORD PTR [eax+0xfc8],0x10
  101b15:	00 00 00 
        context->es = 0x10;
  101b18:	c7 80 c4 0f 00 00 10 	mov    DWORD PTR [eax+0xfc4],0x10
  101b1f:	00 00 00 
        context->fs = 0x10;
  101b22:	c7 80 c0 0f 00 00 10 	mov    DWORD PTR [eax+0xfc0],0x10
  101b29:	00 00 00 
        context->gs = 0x10;
  101b2c:	c7 80 bc 0f 00 00 10 	mov    DWORD PTR [eax+0xfbc],0x10
  101b33:	00 00 00 
    atomic_begin();
  101b36:	e8 05 63 00 00       	call   107e40 <atomic_begin>
    if (running)
  101b3b:	a1 1c 80 11 00       	mov    eax,ds:0x11801c
  101b40:	83 c4 10             	add    esp,0x10
  101b43:	85 c0                	test   eax,eax
  101b45:	75 19                	jne    101b60 <thread_create+0xc0>
        running = thread;
  101b47:	89 1d 1c 80 11 00    	mov    DWORD PTR ds:0x11801c,ebx
    atomic_end();
  101b4d:	e8 0e 63 00 00       	call   107e60 <atomic_end>
}
  101b52:	83 c4 04             	add    esp,0x4
  101b55:	89 d8                	mov    eax,ebx
  101b57:	5b                   	pop    ebx
  101b58:	5e                   	pop    esi
  101b59:	c3                   	ret    
  101b5a:	8d b6 00 00 00 00    	lea    esi,[esi+0x0]
        list_pushback(waiting, (int)thread);
  101b60:	83 ec 08             	sub    esp,0x8
  101b63:	53                   	push   ebx
  101b64:	ff 35 24 80 11 00    	push   DWORD PTR ds:0x118024
  101b6a:	e8 11 66 00 00       	call   108180 <list_pushback>
  101b6f:	83 c4 10             	add    esp,0x10
    atomic_end();
  101b72:	e8 e9 62 00 00       	call   107e60 <atomic_end>
}
  101b77:	83 c4 04             	add    esp,0x4
  101b7a:	89 d8                	mov    eax,ebx
  101b7c:	5b                   	pop    ebx
  101b7d:	5e                   	pop    esi
  101b7e:	c3                   	ret    
  101b7f:	90                   	nop

00101b80 <thread_cancel>:
{
  101b80:	53                   	push   ebx
  101b81:	83 ec 08             	sub    esp,0x8
  101b84:	8b 5c 24 10          	mov    ebx,DWORD PTR [esp+0x10]
    atomic_begin();
  101b88:	e8 b3 62 00 00       	call   107e40 <atomic_begin>
  101b8d:	31 c0                	xor    eax,eax
    if (thread == NULL)
  101b8f:	85 db                	test   ebx,ebx
  101b91:	74 20                	je     101bb3 <thread_cancel+0x33>
    if (!list_containe(dead, (int)thread))
  101b93:	83 ec 08             	sub    esp,0x8
  101b96:	53                   	push   ebx
  101b97:	ff 35 20 80 11 00    	push   DWORD PTR ds:0x118020
  101b9d:	e8 2e 67 00 00       	call   1082d0 <list_containe>
  101ba2:	83 c4 10             	add    esp,0x10
  101ba5:	85 c0                	test   eax,eax
  101ba7:	74 17                	je     101bc0 <thread_cancel+0x40>
    atomic_end();
  101ba9:	e8 b2 62 00 00       	call   107e60 <atomic_end>
  101bae:	b8 01 00 00 00       	mov    eax,0x1
}
  101bb3:	83 c4 08             	add    esp,0x8
  101bb6:	5b                   	pop    ebx
  101bb7:	c3                   	ret    
  101bb8:	90                   	nop
  101bb9:	8d b4 26 00 00 00 00 	lea    esi,[esi+eiz*1+0x0]
        list_pushback(dead, (int)thread);
  101bc0:	83 ec 08             	sub    esp,0x8
  101bc3:	53                   	push   ebx
  101bc4:	ff 35 20 80 11 00    	push   DWORD PTR ds:0x118020
  101bca:	e8 b1 65 00 00       	call   108180 <list_pushback>
  101bcf:	83 c4 10             	add    esp,0x10
  101bd2:	eb d5                	jmp    101ba9 <thread_cancel+0x29>
  101bd4:	8d b6 00 00 00 00    	lea    esi,[esi+0x0]
  101bda:	8d bf 00 00 00 00    	lea    edi,[edi+0x0]

00101be0 <thread_exit>:
{
  101be0:	53                   	push   ebx
  101be1:	83 ec 08             	sub    esp,0x8
    return running;
  101be4:	8b 1d 1c 80 11 00    	mov    ebx,DWORD PTR ds:0x11801c
    atomic_begin();
  101bea:	e8 51 62 00 00       	call   107e40 <atomic_begin>
    if (thread == NULL)
  101bef:	85 db                	test   ebx,ebx
  101bf1:	74 1b                	je     101c0e <thread_exit+0x2e>
    if (!list_containe(dead, (int)thread))
  101bf3:	83 ec 08             	sub    esp,0x8
  101bf6:	53                   	push   ebx
  101bf7:	ff 35 20 80 11 00    	push   DWORD PTR ds:0x118020
  101bfd:	e8 ce 66 00 00       	call   1082d0 <list_containe>
  101c02:	83 c4 10             	add    esp,0x10
  101c05:	85 c0                	test   eax,eax
  101c07:	74 0a                	je     101c13 <thread_exit+0x33>
    atomic_end();
  101c09:	e8 52 62 00 00       	call   107e60 <atomic_end>
    asm("int $32"); // yield
  101c0e:	cd 20                	int    0x20
        hlt();
  101c10:	f4                   	hlt    
  101c11:	eb fd                	jmp    101c10 <thread_exit+0x30>
        list_pushback(dead, (int)thread);
  101c13:	50                   	push   eax
  101c14:	50                   	push   eax
  101c15:	53                   	push   ebx
  101c16:	ff 35 20 80 11 00    	push   DWORD PTR ds:0x118020
  101c1c:	e8 5f 65 00 00       	call   108180 <list_pushback>
  101c21:	83 c4 10             	add    esp,0x10
  101c24:	eb e3                	jmp    101c09 <thread_exit+0x29>
  101c26:	8d 76 00             	lea    esi,[esi+0x0]
  101c29:	8d bc 27 00 00 00 00 	lea    edi,[edi+eiz*1+0x0]

00101c30 <thread_self>:
}
  101c30:	a1 1c 80 11 00       	mov    eax,ds:0x11801c
  101c35:	c3                   	ret    
  101c36:	8d 76 00             	lea    esi,[esi+0x0]
  101c39:	8d bc 27 00 00 00 00 	lea    edi,[edi+eiz*1+0x0]

00101c40 <load_elfseg>:
{
  101c40:	55                   	push   ebp
  101c41:	57                   	push   edi
  101c42:	56                   	push   esi
  101c43:	53                   	push   ebx
  101c44:	83 ec 1c             	sub    esp,0x1c
  101c47:	8b 44 24 34          	mov    eax,DWORD PTR [esp+0x34]
  101c4b:	8b 5c 24 3c          	mov    ebx,DWORD PTR [esp+0x3c]
  101c4f:	8b 74 24 40          	mov    esi,DWORD PTR [esp+0x40]
  101c53:	8b 7c 24 38          	mov    edi,DWORD PTR [esp+0x38]
  101c57:	8b 6c 24 30          	mov    ebp,DWORD PTR [esp+0x30]
  101c5b:	89 44 24 0c          	mov    DWORD PTR [esp+0xc],eax
    atomic_begin();
  101c5f:	e8 dc 61 00 00       	call   107e40 <atomic_begin>
    log("Loading ELF segment: SRC=0x%x(%d) DEST=0x%x(%d)", src, srcsz, dest, destsz);
  101c64:	83 ec 0c             	sub    esp,0xc
  101c67:	56                   	push   esi
  101c68:	53                   	push   ebx
  101c69:	57                   	push   edi
  101c6a:	ff 74 24 24          	push   DWORD PTR [esp+0x24]
  101c6e:	68 f8 62 11 00       	push   0x1162f8
  101c73:	e8 28 fa ff ff       	call   1016a0 <log>
    paging_load_directorie(process->pdir);
  101c78:	83 c4 14             	add    esp,0x14
  101c7b:	ff b5 8c 00 00 00    	push   DWORD PTR [ebp+0x8c]
  101c81:	e8 96 37 00 00       	call   10541c <paging_load_directorie>
    paging_invalidate_tlb();
  101c86:	e8 99 37 00 00       	call   105424 <paging_invalidate_tlb>
    log("ok");
  101c8b:	c7 04 24 8b 1f 11 00 	mov    DWORD PTR [esp],0x111f8b
  101c92:	e8 09 fa ff ff       	call   1016a0 <log>
    process_map(process, dest, PAGE_ALIGN(destsz) / PAGE_SIZE);
  101c97:	89 f0                	mov    eax,esi
    return memory_map(process->pdir, addr, count, 1);
  101c99:	6a 01                	push   0x1
    process_map(process, dest, PAGE_ALIGN(destsz) / PAGE_SIZE);
  101c9b:	25 00 f0 ff ff       	and    eax,0xfffff000
  101ca0:	05 00 10 00 00       	add    eax,0x1000
  101ca5:	c1 e8 0c             	shr    eax,0xc
    return memory_map(process->pdir, addr, count, 1);
  101ca8:	50                   	push   eax
  101ca9:	53                   	push   ebx
  101caa:	ff b5 8c 00 00 00    	push   DWORD PTR [ebp+0x8c]
  101cb0:	e8 db 14 00 00       	call   103190 <memory_map>
    log("ok");
  101cb5:	83 c4 14             	add    esp,0x14
  101cb8:	68 8b 1f 11 00       	push   0x111f8b
  101cbd:	e8 de f9 ff ff       	call   1016a0 <log>
    memset((void *)dest, 0, destsz);
  101cc2:	83 c4 0c             	add    esp,0xc
  101cc5:	56                   	push   esi
  101cc6:	6a 00                	push   0x0
  101cc8:	53                   	push   ebx
  101cc9:	e8 02 3a 00 00       	call   1056d0 <memset>
    log("ok");
  101cce:	c7 04 24 8b 1f 11 00 	mov    DWORD PTR [esp],0x111f8b
  101cd5:	e8 c6 f9 ff ff       	call   1016a0 <log>
    memcpy((void *)dest, (void *)src, srcsz);
  101cda:	83 c4 0c             	add    esp,0xc
  101cdd:	57                   	push   edi
  101cde:	ff 74 24 14          	push   DWORD PTR [esp+0x14]
  101ce2:	53                   	push   ebx
  101ce3:	e8 28 39 00 00       	call   105610 <memcpy>
    log("switching page directorie");
  101ce8:	c7 04 24 8e 1f 11 00 	mov    DWORD PTR [esp],0x111f8e
  101cef:	e8 ac f9 ff ff       	call   1016a0 <log>
    paging_load_directorie(memory_kpdir());
  101cf4:	e8 87 0f 00 00       	call   102c80 <memory_kpdir>
  101cf9:	89 04 24             	mov    DWORD PTR [esp],eax
  101cfc:	e8 1b 37 00 00       	call   10541c <paging_load_directorie>
}
  101d01:	83 c4 2c             	add    esp,0x2c
  101d04:	5b                   	pop    ebx
  101d05:	5e                   	pop    esi
  101d06:	5f                   	pop    edi
  101d07:	5d                   	pop    ebp
    atomic_end();
  101d08:	e9 53 61 00 00       	jmp    107e60 <atomic_end>
  101d0d:	8d 76 00             	lea    esi,[esi+0x0]

00101d10 <process_exec>:
{
  101d10:	55                   	push   ebp
  101d11:	57                   	push   edi
  101d12:	56                   	push   esi
  101d13:	53                   	push   ebx
  101d14:	83 ec 44             	sub    esp,0x44
  101d17:	8b 74 24 58          	mov    esi,DWORD PTR [esp+0x58]
    file_t *fp = file_open(NULL, path);
  101d1b:	56                   	push   esi
  101d1c:	6a 00                	push   0x0
  101d1e:	e8 ed f3 ff ff       	call   101110 <file_open>
    if (!fp)
  101d23:	83 c4 10             	add    esp,0x10
  101d26:	85 c0                	test   eax,eax
  101d28:	0f 84 ce 01 00 00    	je     101efc <process_exec+0x1ec>
    process_t *process = (process_t *)malloc(sizeof(process_t));
  101d2e:	83 ec 0c             	sub    esp,0xc
  101d31:	89 c3                	mov    ebx,eax
  101d33:	68 90 00 00 00       	push   0x90
  101d38:	e8 63 52 00 00       	call   106fa0 <malloc>
  101d3d:	89 c5                	mov    ebp,eax
    process->id = PID++;
  101d3f:	a1 08 ae 23 00       	mov    eax,ds:0x23ae08
    strncpy(process->name, name, PROCNAME_SIZE);
  101d44:	83 c4 0c             	add    esp,0xc
    process->id = PID++;
  101d47:	8d 50 01             	lea    edx,[eax+0x1]
  101d4a:	89 15 08 ae 23 00    	mov    DWORD PTR ds:0x23ae08,edx
  101d50:	89 45 00             	mov    DWORD PTR [ebp+0x0],eax
    strncpy(process->name, name, PROCNAME_SIZE);
  101d53:	8d 45 04             	lea    eax,[ebp+0x4]
  101d56:	68 80 00 00 00       	push   0x80
  101d5b:	56                   	push   esi
  101d5c:	50                   	push   eax
  101d5d:	e8 de 40 00 00       	call   105e40 <strncpy>
    process->user = user;
  101d62:	c6 85 84 00 00 00 01 	mov    BYTE PTR [ebp+0x84],0x1
    process->threads = list_alloc();
  101d69:	e8 52 61 00 00       	call   107ec0 <list_alloc>
  101d6e:	89 85 88 00 00 00    	mov    DWORD PTR [ebp+0x88],eax
        process->pdir = memory_alloc_pdir();
  101d74:	e8 27 11 00 00       	call   102ea0 <memory_alloc_pdir>
  101d79:	89 85 8c 00 00 00    	mov    DWORD PTR [ebp+0x8c],eax
    void *buffer = file_read_all(fp);
  101d7f:	89 1c 24             	mov    DWORD PTR [esp],ebx
  101d82:	e8 69 f5 ff ff       	call   1012f0 <file_read_all>
  101d87:	89 c7                	mov    edi,eax
    file_close(fp);
  101d89:	89 1c 24             	mov    DWORD PTR [esp],ebx
  101d8c:	e8 ff f4 ff ff       	call   101290 <file_close>
    log("ELF file: VALID=%d TYPE=%d ENTRY=0x%x SEG_COUNT=%i", ELF_valid(elf), elf->type, elf->entry, elf->phnum);
  101d91:	0f b7 57 2c          	movzx  edx,WORD PTR [edi+0x2c]
  101d95:	0f b7 5f 10          	movzx  ebx,WORD PTR [edi+0x10]
  101d99:	8b 77 18             	mov    esi,DWORD PTR [edi+0x18]
  101d9c:	89 3c 24             	mov    DWORD PTR [esp],edi
  101d9f:	89 54 24 14          	mov    DWORD PTR [esp+0x14],edx
  101da3:	e8 68 69 00 00       	call   108710 <ELF_valid>
  101da8:	8b 54 24 14          	mov    edx,DWORD PTR [esp+0x14]
  101dac:	89 14 24             	mov    DWORD PTR [esp],edx
  101daf:	56                   	push   esi
  101db0:	53                   	push   ebx
  101db1:	50                   	push   eax
  101db2:	68 50 63 11 00       	push   0x116350
  101db7:	e8 e4 f8 ff ff       	call   1016a0 <log>
    for (int i = 0; ELF_read_program(elf, &program, i); i++)
  101dbc:	83 c4 20             	add    esp,0x20
  101dbf:	c7 44 24 08 00 00 00 	mov    DWORD PTR [esp+0x8],0x0
  101dc6:	00 
  101dc7:	89 7c 24 04          	mov    DWORD PTR [esp+0x4],edi
  101dcb:	89 6c 24 0c          	mov    DWORD PTR [esp+0xc],ebp
  101dcf:	e9 d8 00 00 00       	jmp    101eac <process_exec+0x19c>
  101dd4:	8d 74 26 00          	lea    esi,[esi+eiz*1+0x0]
        printf("\n");
  101dd8:	83 ec 0c             	sub    esp,0xc
  101ddb:	68 f9 1f 11 00       	push   0x111ff9
  101de0:	e8 8b 48 00 00       	call   106670 <printf>
        load_elfseg(process, (uint)(buffer) + program.offset, program.filesz, program.vaddr, program.memsz);
  101de5:	8b 7c 24 14          	mov    edi,DWORD PTR [esp+0x14]
  101de9:	03 7c 24 24          	add    edi,DWORD PTR [esp+0x24]
  101ded:	8b 74 24 34          	mov    esi,DWORD PTR [esp+0x34]
  101df1:	8b 5c 24 28          	mov    ebx,DWORD PTR [esp+0x28]
  101df5:	8b 6c 24 30          	mov    ebp,DWORD PTR [esp+0x30]
    atomic_begin();
  101df9:	e8 42 60 00 00       	call   107e40 <atomic_begin>
    log("Loading ELF segment: SRC=0x%x(%d) DEST=0x%x(%d)", src, srcsz, dest, destsz);
  101dfe:	89 34 24             	mov    DWORD PTR [esp],esi
  101e01:	53                   	push   ebx
  101e02:	55                   	push   ebp
  101e03:	57                   	push   edi
  101e04:	68 f8 62 11 00       	push   0x1162f8
  101e09:	e8 92 f8 ff ff       	call   1016a0 <log>
    paging_load_directorie(process->pdir);
  101e0e:	83 c4 14             	add    esp,0x14
  101e11:	8b 44 24 18          	mov    eax,DWORD PTR [esp+0x18]
  101e15:	ff b0 8c 00 00 00    	push   DWORD PTR [eax+0x8c]
  101e1b:	e8 fc 35 00 00       	call   10541c <paging_load_directorie>
    paging_invalidate_tlb();
  101e20:	e8 ff 35 00 00       	call   105424 <paging_invalidate_tlb>
    log("ok");
  101e25:	c7 04 24 8b 1f 11 00 	mov    DWORD PTR [esp],0x111f8b
  101e2c:	e8 6f f8 ff ff       	call   1016a0 <log>
    process_map(process, dest, PAGE_ALIGN(destsz) / PAGE_SIZE);
  101e31:	89 f1                	mov    ecx,esi
    return memory_map(process->pdir, addr, count, 1);
  101e33:	6a 01                	push   0x1
    process_map(process, dest, PAGE_ALIGN(destsz) / PAGE_SIZE);
  101e35:	81 e1 00 f0 ff ff    	and    ecx,0xfffff000
  101e3b:	89 c8                	mov    eax,ecx
  101e3d:	05 00 10 00 00       	add    eax,0x1000
  101e42:	c1 e8 0c             	shr    eax,0xc
    return memory_map(process->pdir, addr, count, 1);
  101e45:	50                   	push   eax
  101e46:	53                   	push   ebx
  101e47:	8b 44 24 28          	mov    eax,DWORD PTR [esp+0x28]
  101e4b:	ff b0 8c 00 00 00    	push   DWORD PTR [eax+0x8c]
  101e51:	e8 3a 13 00 00       	call   103190 <memory_map>
    log("ok");
  101e56:	83 c4 14             	add    esp,0x14
  101e59:	68 8b 1f 11 00       	push   0x111f8b
  101e5e:	e8 3d f8 ff ff       	call   1016a0 <log>
    memset((void *)dest, 0, destsz);
  101e63:	83 c4 0c             	add    esp,0xc
  101e66:	56                   	push   esi
  101e67:	6a 00                	push   0x0
  101e69:	53                   	push   ebx
  101e6a:	e8 61 38 00 00       	call   1056d0 <memset>
    log("ok");
  101e6f:	c7 04 24 8b 1f 11 00 	mov    DWORD PTR [esp],0x111f8b
  101e76:	e8 25 f8 ff ff       	call   1016a0 <log>
    memcpy((void *)dest, (void *)src, srcsz);
  101e7b:	83 c4 0c             	add    esp,0xc
  101e7e:	55                   	push   ebp
  101e7f:	57                   	push   edi
  101e80:	53                   	push   ebx
  101e81:	e8 8a 37 00 00       	call   105610 <memcpy>
    log("switching page directorie");
  101e86:	c7 04 24 8e 1f 11 00 	mov    DWORD PTR [esp],0x111f8e
  101e8d:	e8 0e f8 ff ff       	call   1016a0 <log>
    paging_load_directorie(memory_kpdir());
  101e92:	e8 e9 0d 00 00       	call   102c80 <memory_kpdir>
  101e97:	89 04 24             	mov    DWORD PTR [esp],eax
  101e9a:	e8 7d 35 00 00       	call   10541c <paging_load_directorie>
    atomic_end();
  101e9f:	e8 bc 5f 00 00       	call   107e60 <atomic_end>
    for (int i = 0; ELF_read_program(elf, &program, i); i++)
  101ea4:	83 44 24 18 01       	add    DWORD PTR [esp+0x18],0x1
  101ea9:	83 c4 10             	add    esp,0x10
  101eac:	83 ec 04             	sub    esp,0x4
  101eaf:	ff 74 24 0c          	push   DWORD PTR [esp+0xc]
  101eb3:	8d 44 24 18          	lea    eax,[esp+0x18]
  101eb7:	50                   	push   eax
  101eb8:	ff 74 24 10          	push   DWORD PTR [esp+0x10]
  101ebc:	e8 1f 69 00 00       	call   1087e0 <ELF_read_program>
  101ec1:	83 c4 10             	add    esp,0x10
  101ec4:	85 c0                	test   eax,eax
  101ec6:	0f 85 0c ff ff ff    	jne    101dd8 <process_exec+0xc8>
  101ecc:	8b 7c 24 04          	mov    edi,DWORD PTR [esp+0x4]
  101ed0:	8b 6c 24 0c          	mov    ebp,DWORD PTR [esp+0xc]
    paging_load_directorie(process->pdir);
  101ed4:	83 ec 0c             	sub    esp,0xc
    thread_entry_t entry = (thread_entry_t)elf->entry;
  101ed7:	8b 5f 18             	mov    ebx,DWORD PTR [edi+0x18]
    paging_load_directorie(process->pdir);
  101eda:	ff b5 8c 00 00 00    	push   DWORD PTR [ebp+0x8c]
  101ee0:	e8 37 35 00 00       	call   10541c <paging_load_directorie>
    entry();
  101ee5:	ff d3                	call   ebx
    free(buffer);
  101ee7:	89 3c 24             	mov    DWORD PTR [esp],edi
  101eea:	e8 81 55 00 00       	call   107470 <free>
    return process;
  101eef:	83 c4 10             	add    esp,0x10
}
  101ef2:	83 c4 3c             	add    esp,0x3c
  101ef5:	89 e8                	mov    eax,ebp
  101ef7:	5b                   	pop    ebx
  101ef8:	5e                   	pop    esi
  101ef9:	5f                   	pop    edi
  101efa:	5d                   	pop    ebp
  101efb:	c3                   	ret    
        log("EXEC: %s file not found, exec failed!", path);
  101efc:	83 ec 08             	sub    esp,0x8
        return NULL;
  101eff:	31 ed                	xor    ebp,ebp
        log("EXEC: %s file not found, exec failed!", path);
  101f01:	56                   	push   esi
  101f02:	68 28 63 11 00       	push   0x116328
  101f07:	e8 94 f7 ff ff       	call   1016a0 <log>
        return NULL;
  101f0c:	83 c4 10             	add    esp,0x10
  101f0f:	eb e1                	jmp    101ef2 <process_exec+0x1e2>
  101f11:	eb 0d                	jmp    101f20 <process_kill>
  101f13:	90                   	nop
  101f14:	90                   	nop
  101f15:	90                   	nop
  101f16:	90                   	nop
  101f17:	90                   	nop
  101f18:	90                   	nop
  101f19:	90                   	nop
  101f1a:	90                   	nop
  101f1b:	90                   	nop
  101f1c:	90                   	nop
  101f1d:	90                   	nop
  101f1e:	90                   	nop
  101f1f:	90                   	nop

00101f20 <process_kill>:
{
  101f20:	53                   	push   ebx
  101f21:	83 ec 08             	sub    esp,0x8
    atomic_begin();
  101f24:	e8 17 5f 00 00       	call   107e40 <atomic_begin>
    FOREACH(i, process->threads)
  101f29:	8b 44 24 10          	mov    eax,DWORD PTR [esp+0x10]
  101f2d:	8b 80 88 00 00 00    	mov    eax,DWORD PTR [eax+0x88]
  101f33:	8b 58 04             	mov    ebx,DWORD PTR [eax+0x4]
  101f36:	85 db                	test   ebx,ebx
  101f38:	74 2d                	je     101f67 <process_kill+0x47>
  101f3a:	8d b6 00 00 00 00    	lea    esi,[esi+0x0]
    atomic_begin();
  101f40:	e8 fb 5e 00 00       	call   107e40 <atomic_begin>
    if (!list_containe(dead, (int)thread))
  101f45:	83 ec 08             	sub    esp,0x8
  101f48:	53                   	push   ebx
  101f49:	ff 35 20 80 11 00    	push   DWORD PTR ds:0x118020
  101f4f:	e8 7c 63 00 00       	call   1082d0 <list_containe>
  101f54:	83 c4 10             	add    esp,0x10
  101f57:	85 c0                	test   eax,eax
  101f59:	74 1d                	je     101f78 <process_kill+0x58>
    atomic_end();
  101f5b:	e8 00 5f 00 00       	call   107e60 <atomic_end>
    FOREACH(i, process->threads)
  101f60:	8b 5b 04             	mov    ebx,DWORD PTR [ebx+0x4]
  101f63:	85 db                	test   ebx,ebx
  101f65:	75 d9                	jne    101f40 <process_kill+0x20>
    atomic_end();
  101f67:	e8 f4 5e 00 00       	call   107e60 <atomic_end>
    asm("int $32"); // yield
  101f6c:	cd 20                	int    0x20
}
  101f6e:	83 c4 08             	add    esp,0x8
  101f71:	5b                   	pop    ebx
  101f72:	c3                   	ret    
  101f73:	90                   	nop
  101f74:	8d 74 26 00          	lea    esi,[esi+eiz*1+0x0]
        list_pushback(dead, (int)thread);
  101f78:	83 ec 08             	sub    esp,0x8
  101f7b:	53                   	push   ebx
  101f7c:	ff 35 20 80 11 00    	push   DWORD PTR ds:0x118020
  101f82:	e8 f9 61 00 00       	call   108180 <list_pushback>
    atomic_end();
  101f87:	e8 d4 5e 00 00       	call   107e60 <atomic_end>
    FOREACH(i, process->threads)
  101f8c:	8b 5b 04             	mov    ebx,DWORD PTR [ebx+0x4]
  101f8f:	83 c4 10             	add    esp,0x10
  101f92:	85 db                	test   ebx,ebx
  101f94:	75 aa                	jne    101f40 <process_kill+0x20>
  101f96:	eb cf                	jmp    101f67 <process_kill+0x47>
  101f98:	90                   	nop
  101f99:	8d b4 26 00 00 00 00 	lea    esi,[esi+eiz*1+0x0]

00101fa0 <process_self>:
    return running->process;
  101fa0:	a1 1c 80 11 00       	mov    eax,ds:0x11801c
  101fa5:	8b 40 10             	mov    eax,DWORD PTR [eax+0x10]
}
  101fa8:	c3                   	ret    
  101fa9:	8d b4 26 00 00 00 00 	lea    esi,[esi+eiz*1+0x0]

00101fb0 <process_exit>:
{
  101fb0:	53                   	push   ebx
  101fb1:	83 ec 08             	sub    esp,0x8
    return running->process;
  101fb4:	a1 1c 80 11 00       	mov    eax,ds:0x11801c
  101fb9:	8b 58 10             	mov    ebx,DWORD PTR [eax+0x10]
    if (self != kernel_process)
  101fbc:	39 1d 28 80 11 00    	cmp    DWORD PTR ds:0x118028,ebx
  101fc2:	74 7c                	je     102040 <process_exit+0x90>
    atomic_begin();
  101fc4:	e8 77 5e 00 00       	call   107e40 <atomic_begin>
    FOREACH(i, process->threads)
  101fc9:	8b 83 88 00 00 00    	mov    eax,DWORD PTR [ebx+0x88]
  101fcf:	8b 58 04             	mov    ebx,DWORD PTR [eax+0x4]
  101fd2:	85 db                	test   ebx,ebx
  101fd4:	74 31                	je     102007 <process_exit+0x57>
  101fd6:	8d 76 00             	lea    esi,[esi+0x0]
  101fd9:	8d bc 27 00 00 00 00 	lea    edi,[edi+eiz*1+0x0]
    atomic_begin();
  101fe0:	e8 5b 5e 00 00       	call   107e40 <atomic_begin>
    if (!list_containe(dead, (int)thread))
  101fe5:	83 ec 08             	sub    esp,0x8
  101fe8:	53                   	push   ebx
  101fe9:	ff 35 20 80 11 00    	push   DWORD PTR ds:0x118020
  101fef:	e8 dc 62 00 00       	call   1082d0 <list_containe>
  101ff4:	83 c4 10             	add    esp,0x10
  101ff7:	85 c0                	test   eax,eax
  101ff9:	74 1d                	je     102018 <process_exit+0x68>
    atomic_end();
  101ffb:	e8 60 5e 00 00       	call   107e60 <atomic_end>
    FOREACH(i, process->threads)
  102000:	8b 5b 04             	mov    ebx,DWORD PTR [ebx+0x4]
  102003:	85 db                	test   ebx,ebx
  102005:	75 d9                	jne    101fe0 <process_exit+0x30>
    atomic_end();
  102007:	e8 54 5e 00 00       	call   107e60 <atomic_end>
    asm("int $32"); // yield
  10200c:	cd 20                	int    0x20
}
  10200e:	83 c4 08             	add    esp,0x8
  102011:	5b                   	pop    ebx
  102012:	c3                   	ret    
  102013:	90                   	nop
  102014:	8d 74 26 00          	lea    esi,[esi+eiz*1+0x0]
        list_pushback(dead, (int)thread);
  102018:	83 ec 08             	sub    esp,0x8
  10201b:	53                   	push   ebx
  10201c:	ff 35 20 80 11 00    	push   DWORD PTR ds:0x118020
  102022:	e8 59 61 00 00       	call   108180 <list_pushback>
    atomic_end();
  102027:	e8 34 5e 00 00       	call   107e60 <atomic_end>
    FOREACH(i, process->threads)
  10202c:	8b 5b 04             	mov    ebx,DWORD PTR [ebx+0x4]
  10202f:	83 c4 10             	add    esp,0x10
  102032:	85 db                	test   ebx,ebx
  102034:	75 aa                	jne    101fe0 <process_exit+0x30>
  102036:	eb cf                	jmp    102007 <process_exit+0x57>
  102038:	90                   	nop
  102039:	8d b4 26 00 00 00 00 	lea    esi,[esi+eiz*1+0x0]
        PANIC("Kernel commit suicide!");
  102040:	83 ec 0c             	sub    esp,0xc
  102043:	68 a8 1f 11 00       	push   0x111fa8
  102048:	6a 00                	push   0x0
  10204a:	68 17 01 00 00       	push   0x117
  10204f:	68 34 1d 11 00       	push   0x111d34
  102054:	68 84 63 11 00       	push   0x116384
  102059:	e8 52 00 00 00       	call   1020b0 <__panic>
  10205e:	83 c4 20             	add    esp,0x20
}
  102061:	83 c4 08             	add    esp,0x8
  102064:	5b                   	pop    ebx
  102065:	c3                   	ret    
  102066:	8d 76 00             	lea    esi,[esi+0x0]
  102069:	8d bc 27 00 00 00 00 	lea    edi,[edi+eiz*1+0x0]

00102070 <process_map>:
{
  102070:	83 ec 0c             	sub    esp,0xc
    return memory_map(process->pdir, addr, count, 1);
  102073:	6a 01                	push   0x1
  102075:	ff 74 24 1c          	push   DWORD PTR [esp+0x1c]
  102079:	ff 74 24 1c          	push   DWORD PTR [esp+0x1c]
  10207d:	8b 44 24 1c          	mov    eax,DWORD PTR [esp+0x1c]
  102081:	ff b0 8c 00 00 00    	push   DWORD PTR [eax+0x8c]
  102087:	e8 04 11 00 00       	call   103190 <memory_map>
}
  10208c:	83 c4 1c             	add    esp,0x1c
  10208f:	c3                   	ret    

00102090 <process_unmap>:
    return memory_unmap(process->pdir, addr, count);
  102090:	8b 44 24 04          	mov    eax,DWORD PTR [esp+0x4]
  102094:	8b 80 8c 00 00 00    	mov    eax,DWORD PTR [eax+0x8c]
  10209a:	89 44 24 04          	mov    DWORD PTR [esp+0x4],eax
  10209e:	e9 9d 12 00 00       	jmp    103340 <memory_unmap>
  1020a3:	66 90                	xchg   ax,ax
  1020a5:	66 90                	xchg   ax,ax
  1020a7:	66 90                	xchg   ax,ax
  1020a9:	66 90                	xchg   ax,ax
  1020ab:	66 90                	xchg   ax,ax
  1020ad:	66 90                	xchg   ax,ax
  1020af:	90                   	nop

001020b0 <__panic>:
    "System consumed all the paper for paging!",
    "Suspicious pointer corrupted the machine."
};

void __panic(const string file, const string function, const int line, context_t *context, string message, ...)
{
  1020b0:	53                   	push   ebx
  1020b1:	83 ec 14             	sub    esp,0x14
  1020b4:	8b 5c 24 28          	mov    ebx,DWORD PTR [esp+0x28]
    cli();
  1020b8:	fa                   	cli    
    va_list va;
    va_start(va, message);

    printf("\n--- !!! ------------------------------------------------------------------------\n");
  1020b9:	68 a8 63 11 00       	push   0x1163a8
  1020be:	e8 ad 45 00 00       	call   106670 <printf>

    printf("\n\tKERNEL PANIC\n\t// %s\n\n\t", witty_comments[timer_get_ticks() % (9 + 4)]);
  1020c3:	e8 58 1b 00 00       	call   103c20 <timer_get_ticks>
  1020c8:	ba 4f ec c4 4e       	mov    edx,0x4ec4ec4f
  1020cd:	89 c1                	mov    ecx,eax
  1020cf:	83 c4 08             	add    esp,0x8
  1020d2:	f7 e2                	mul    edx
  1020d4:	89 d0                	mov    eax,edx
  1020d6:	c1 e8 02             	shr    eax,0x2
  1020d9:	8d 14 40             	lea    edx,[eax+eax*2]
  1020dc:	8d 04 90             	lea    eax,[eax+edx*4]
  1020df:	29 c1                	sub    ecx,eax
  1020e1:	ff 34 8d 60 1d 11 00 	push   DWORD PTR [ecx*4+0x111d60]
  1020e8:	68 bf 1f 11 00       	push   0x111fbf
  1020ed:	e8 7e 45 00 00       	call   106670 <printf>

    vprintf(message, va);
  1020f2:	58                   	pop    eax
  1020f3:	5a                   	pop    edx
  1020f4:	8d 44 24 2c          	lea    eax,[esp+0x2c]
  1020f8:	50                   	push   eax
  1020f9:	ff 74 24 2c          	push   DWORD PTR [esp+0x2c]
  1020fd:	e8 9e 47 00 00       	call   1068a0 <vprintf>
    printf("\n\tat %s %s() ln%d", file, function, line);
  102102:	ff 74 24 28          	push   DWORD PTR [esp+0x28]
  102106:	ff 74 24 28          	push   DWORD PTR [esp+0x28]
  10210a:	ff 74 24 28          	push   DWORD PTR [esp+0x28]
  10210e:	68 d8 1f 11 00       	push   0x111fd8
  102113:	e8 58 45 00 00       	call   106670 <printf>

    printf("\n");
  102118:	83 c4 14             	add    esp,0x14
  10211b:	68 f9 1f 11 00       	push   0x111ff9
  102120:	e8 4b 45 00 00       	call   106670 <printf>
    printf("\n\tDiagnostic:");
  102125:	c7 04 24 ea 1f 11 00 	mov    DWORD PTR [esp],0x111fea
  10212c:	e8 3f 45 00 00       	call   106670 <printf>
    printf("\n\tThe system was running for %d tick.", timer_get_ticks());
  102131:	e8 ea 1a 00 00       	call   103c20 <timer_get_ticks>
  102136:	59                   	pop    ecx
  102137:	5a                   	pop    edx
  102138:	50                   	push   eax
  102139:	68 fc 63 11 00       	push   0x1163fc
  10213e:	e8 2d 45 00 00       	call   106670 <printf>
    printf("\n\n");
  102143:	c7 04 24 f8 1f 11 00 	mov    DWORD PTR [esp],0x111ff8
  10214a:	e8 21 45 00 00       	call   106670 <printf>

    if (context != NULL)
  10214f:	83 c4 10             	add    esp,0x10
  102152:	85 db                	test   ebx,ebx
  102154:	74 0c                	je     102162 <__panic+0xb2>
    {
        dump_context(context);
  102156:	83 ec 0c             	sub    esp,0xc
  102159:	53                   	push   ebx
  10215a:	e8 21 23 00 00       	call   104480 <dump_context>
  10215f:	83 c4 10             	add    esp,0x10
    }

    puts("\n\tSystem halted!\n");
  102162:	83 ec 0c             	sub    esp,0xc
  102165:	68 fb 1f 11 00       	push   0x111ffb
  10216a:	e8 31 57 00 00       	call   1078a0 <puts>
  10216f:	83 c4 10             	add    esp,0x10
  102172:	8d b6 00 00 00 00    	lea    esi,[esi+0x0]

    STOP;
  102178:	fa                   	cli    
  102179:	f4                   	hlt    
  10217a:	eb fc                	jmp    102178 <__panic+0xc8>
  10217c:	66 90                	xchg   ax,ax
  10217e:	66 90                	xchg   ax,ax

00102180 <virtual_map.constprop.2>:
    page_t *p = &ptable->pages[pti];

    return ((p->PageFrameNumber & ~0xfff) + (vaddr & 0xfff));
}

int virtual_map(page_directorie_t *pdir, uint vaddr, uint paddr, uint count, bool user)
  102180:	55                   	push   ebp
  102181:	57                   	push   edi
  102182:	89 c7                	mov    edi,eax
  102184:	56                   	push   esi
  102185:	53                   	push   ebx
  102186:	89 d6                	mov    esi,edx
  102188:	83 ec 2c             	sub    esp,0x2c
  10218b:	8b 5c 24 40          	mov    ebx,DWORD PTR [esp+0x40]
  10218f:	89 4c 24 18          	mov    DWORD PTR [esp+0x18],ecx
{

    log("VMAP VADDR=0x%x PADDR=0x%x COUNT=%d", vaddr, paddr, count);
  102193:	6a 01                	push   0x1
  102195:	51                   	push   ecx
  102196:	52                   	push   edx
  102197:	68 b4 65 11 00       	push   0x1165b4
  10219c:	e8 ff f4 ff ff       	call   1016a0 <log>
    for (uint i = 0; i < count; i++)
    {
        uint offset = i * PAGE_SIZE;

        uint pdi = PD_INDEX(vaddr + offset);
  1021a1:	89 f1                	mov    ecx,esi
  1021a3:	89 d8                	mov    eax,ebx
        uint pti = PT_INDEX(vaddr + offset);
  1021a5:	c1 ee 0c             	shr    esi,0xc
        uint pdi = PD_INDEX(vaddr + offset);
  1021a8:	c1 e9 16             	shr    ecx,0x16
  1021ab:	83 e0 01             	and    eax,0x1
        uint pti = PT_INDEX(vaddr + offset);
  1021ae:	81 e6 ff 03 00 00    	and    esi,0x3ff
        uint pdi = PD_INDEX(vaddr + offset);
  1021b4:	89 4c 24 2c          	mov    DWORD PTR [esp+0x2c],ecx
  1021b8:	88 44 24 27          	mov    BYTE PTR [esp+0x27],al

        page_directorie_entry_t *pde = &pdir->entries[pdi];
        page_table_t *ptable = (page_table_t *)(pde->PageFrameNumber * PAGE_SIZE);

        if (!pde->Present)
  1021bc:	83 c4 10             	add    esp,0x10
  1021bf:	f6 04 8f 01          	test   BYTE PTR [edi+ecx*4],0x1
  1021c3:	74 6b                	je     102230 <virtual_map.constprop.2+0xb0>
        page_table_t *ptable = (page_table_t *)(pde->PageFrameNumber * PAGE_SIZE);
  1021c5:	0f b6 44 8f 01       	movzx  eax,BYTE PTR [edi+ecx*4+0x1]
  1021ca:	88 44 24 0c          	mov    BYTE PTR [esp+0xc],al
  1021ce:	0f b6 5c 8f 02       	movzx  ebx,BYTE PTR [edi+ecx*4+0x2]
  1021d3:	c0 e8 04             	shr    al,0x4
  1021d6:	0f b6 c0             	movzx  eax,al
  1021d9:	c1 e3 04             	shl    ebx,0x4
  1021dc:	09 d8                	or     eax,ebx
  1021de:	0f b6 5c 8f 03       	movzx  ebx,BYTE PTR [edi+ecx*4+0x3]
  1021e3:	c1 e3 0c             	shl    ebx,0xc
  1021e6:	09 c3                	or     ebx,eax
  1021e8:	c1 e3 0c             	shl    ebx,0xc
            pde->User = user;
            pde->PageFrameNumber = (u32)(ptable) >> 12;
        }

        page_t *p = &ptable->pages[pti];
        p->Present = 1;
  1021eb:	0f b6 04 b3          	movzx  eax,BYTE PTR [ebx+esi*4]
        p->User = user;
  1021ef:	0f b6 54 24 17       	movzx  edx,BYTE PTR [esp+0x17]
        p->Present = 1;
  1021f4:	83 c8 01             	or     eax,0x1
        p->User = user;
  1021f7:	c1 e2 02             	shl    edx,0x2
  1021fa:	83 e0 fb             	and    eax,0xfffffffb
  1021fd:	09 d0                	or     eax,edx
        p->Write = 1;
        p->PageFrameNumber = (paddr + offset) >> 12;
  1021ff:	8b 54 24 18          	mov    edx,DWORD PTR [esp+0x18]
        p->Write = 1;
  102203:	83 c8 02             	or     eax,0x2
  102206:	88 04 b3             	mov    BYTE PTR [ebx+esi*4],al
        p->PageFrameNumber = (paddr + offset) >> 12;
  102209:	8b 04 b3             	mov    eax,DWORD PTR [ebx+esi*4]
  10220c:	81 e2 00 f0 ff ff    	and    edx,0xfffff000
  102212:	25 ff 0f 00 00       	and    eax,0xfff
  102217:	09 d0                	or     eax,edx
  102219:	89 04 b3             	mov    DWORD PTR [ebx+esi*4],eax
    }

    paging_invalidate_tlb();
  10221c:	e8 03 32 00 00       	call   105424 <paging_invalidate_tlb>

    return 0;
}
  102221:	83 c4 2c             	add    esp,0x2c
  102224:	31 c0                	xor    eax,eax
  102226:	5b                   	pop    ebx
  102227:	5e                   	pop    esi
  102228:	5f                   	pop    edi
  102229:	5d                   	pop    ebp
  10222a:	c3                   	ret    
  10222b:	90                   	nop
  10222c:	8d 74 26 00          	lea    esi,[esi+eiz*1+0x0]
            log("Missing page table! Allocating a new one");
  102230:	83 ec 0c             	sub    esp,0xc
  102233:	68 d8 65 11 00       	push   0x1165d8
  102238:	e8 63 f4 ff ff       	call   1016a0 <log>
    return &kpdir;
}

uint memory_alloc(uint count)
{
    atomic_begin();
  10223d:	e8 fe 5b 00 00       	call   107e40 <atomic_begin>
    log("PALLOC COUNT=%d", count);
  102242:	58                   	pop    eax
  102243:	5a                   	pop    edx
  102244:	6a 01                	push   0x1
  102246:	68 82 20 11 00       	push   0x112082
  10224b:	e8 50 f4 ff ff       	call   1016a0 <log>
    for (uint i = 0; i < (TOTAL_MEMORY / PAGE_SIZE); i++)
  102250:	a1 10 ae 23 00       	mov    eax,ds:0x23ae10
  102255:	83 c4 10             	add    esp,0x10
  102258:	c1 e8 0c             	shr    eax,0xc
  10225b:	85 c0                	test   eax,eax
  10225d:	74 28                	je     102287 <virtual_map.constprop.2+0x107>
        if (PHYSICAL_IS_USED(addr + i * PAGE_SIZE))
  10225f:	f6 05 00 a0 21 00 01 	test   BYTE PTR ds:0x21a000,0x1
  102266:	0f 85 84 00 00 00    	jne    1022f0 <virtual_map.constprop.2+0x170>
    log("P_S_USED ADDR=0x%x COUNT=%d", addr, count);
  10226c:	83 ec 04             	sub    esp,0x4
  10226f:	6a 01                	push   0x1
  102271:	6a 00                	push   0x0
  102273:	68 a7 20 11 00       	push   0x1120a7
  102278:	e8 23 f4 ff ff       	call   1016a0 <log>
        PHYSICAL_SET_USED(addr + (i * PAGE_SIZE));
  10227d:	80 0d 00 a0 21 00 01 	or     BYTE PTR ds:0x21a000,0x1
  102284:	83 c4 10             	add    esp,0x10
  102287:	31 ed                	xor    ebp,ebp
  102289:	31 db                	xor    ebx,ebx
    uint addr = physical_alloc(count);

    if (addr != 0)
        virtual_map(&kpdir, addr, addr, count, 0);

    atomic_end();
  10228b:	e8 d0 5b 00 00       	call   107e60 <atomic_end>
            log("New page table at %x", ptable);
  102290:	83 ec 08             	sub    esp,0x8
  102293:	53                   	push   ebx
  102294:	68 92 20 11 00       	push   0x112092
  102299:	e8 02 f4 ff ff       	call   1016a0 <log>
            pde->Present = 1;
  10229e:	8b 4c 24 2c          	mov    ecx,DWORD PTR [esp+0x2c]
            pde->User = user;
  1022a2:	0f b6 54 24 27       	movzx  edx,BYTE PTR [esp+0x27]
            pde->Present = 1;
  1022a7:	0f b6 04 8f          	movzx  eax,BYTE PTR [edi+ecx*4]
            pde->User = user;
  1022ab:	c1 e2 02             	shl    edx,0x2
            pde->Write = 1;
  1022ae:	83 c8 03             	or     eax,0x3
            pde->User = user;
  1022b1:	83 e0 fb             	and    eax,0xfffffffb
  1022b4:	09 d0                	or     eax,edx
            pde->PageFrameNumber = (u32)(ptable) >> 12;
  1022b6:	89 ea                	mov    edx,ebp
            pde->User = user;
  1022b8:	88 04 8f             	mov    BYTE PTR [edi+ecx*4],al
            pde->PageFrameNumber = (u32)(ptable) >> 12;
  1022bb:	0f b6 44 8f 01       	movzx  eax,BYTE PTR [edi+ecx*4+0x1]
  1022c0:	c1 e2 04             	shl    edx,0x4
  1022c3:	88 44 24 1c          	mov    BYTE PTR [esp+0x1c],al
  1022c7:	83 e0 0f             	and    eax,0xf
  1022ca:	83 c4 10             	add    esp,0x10
  1022cd:	09 d0                	or     eax,edx
  1022cf:	88 44 8f 01          	mov    BYTE PTR [edi+ecx*4+0x1],al
  1022d3:	89 e8                	mov    eax,ebp
  1022d5:	c1 ed 0c             	shr    ebp,0xc
  1022d8:	c1 e8 04             	shr    eax,0x4
  1022db:	88 44 8f 02          	mov    BYTE PTR [edi+ecx*4+0x2],al
  1022df:	89 e8                	mov    eax,ebp
  1022e1:	88 44 8f 03          	mov    BYTE PTR [edi+ecx*4+0x3],al
  1022e5:	e9 01 ff ff ff       	jmp    1021eb <virtual_map.constprop.2+0x6b>
  1022ea:	8d b6 00 00 00 00    	lea    esi,[esi+0x0]
  1022f0:	c1 e0 0c             	shl    eax,0xc
        if (PHYSICAL_IS_USED(addr + i * PAGE_SIZE))
  1022f3:	bb 00 10 00 00       	mov    ebx,0x1000
  1022f8:	89 44 24 0c          	mov    DWORD PTR [esp+0xc],eax
  1022fc:	8d 74 26 00          	lea    esi,[esi+eiz*1+0x0]
    for (uint i = 0; i < (TOTAL_MEMORY / PAGE_SIZE); i++)
  102300:	39 5c 24 0c          	cmp    DWORD PTR [esp+0xc],ebx
  102304:	74 81                	je     102287 <virtual_map.constprop.2+0x107>
  102306:	8d 83 00 10 00 00    	lea    eax,[ebx+0x1000]
        if (PHYSICAL_IS_USED(addr + i * PAGE_SIZE))
  10230c:	89 da                	mov    edx,ebx
  10230e:	89 dd                	mov    ebp,ebx
  102310:	c1 ea 0f             	shr    edx,0xf
  102313:	c1 ed 0c             	shr    ebp,0xc
  102316:	89 44 24 10          	mov    DWORD PTR [esp+0x10],eax
  10231a:	0f b6 82 00 a0 21 00 	movzx  eax,BYTE PTR [edx+0x21a000]
  102321:	89 e9                	mov    ecx,ebp
  102323:	83 e1 07             	and    ecx,0x7
  102326:	0f a3 c8             	bt     eax,ecx
  102329:	72 5d                	jb     102388 <virtual_map.constprop.2+0x208>
  10232b:	89 54 24 10          	mov    DWORD PTR [esp+0x10],edx
  10232f:	89 4c 24 0c          	mov    DWORD PTR [esp+0xc],ecx
    log("P_S_USED ADDR=0x%x COUNT=%d", addr, count);
  102333:	83 ec 04             	sub    esp,0x4
  102336:	6a 01                	push   0x1
  102338:	53                   	push   ebx
  102339:	81 e5 ff ff 0f 00    	and    ebp,0xfffff
  10233f:	68 a7 20 11 00       	push   0x1120a7
  102344:	e8 57 f3 ff ff       	call   1016a0 <log>
        PHYSICAL_SET_USED(addr + (i * PAGE_SIZE));
  102349:	8b 4c 24 1c          	mov    ecx,DWORD PTR [esp+0x1c]
  10234d:	8b 54 24 20          	mov    edx,DWORD PTR [esp+0x20]
  102351:	b8 01 00 00 00       	mov    eax,0x1
    if (addr != 0)
  102356:	83 c4 10             	add    esp,0x10
        PHYSICAL_SET_USED(addr + (i * PAGE_SIZE));
  102359:	d3 e0                	shl    eax,cl
  10235b:	08 82 00 a0 21 00    	or     BYTE PTR [edx+0x21a000],al
    if (addr != 0)
  102361:	85 db                	test   ebx,ebx
  102363:	0f 84 22 ff ff ff    	je     10228b <virtual_map.constprop.2+0x10b>
        virtual_map(&kpdir, addr, addr, count, 0);
  102369:	83 ec 0c             	sub    esp,0xc
  10236c:	89 d9                	mov    ecx,ebx
  10236e:	89 da                	mov    edx,ebx
  102370:	6a 00                	push   0x0
  102372:	b8 00 90 11 00       	mov    eax,0x119000
  102377:	e8 04 fe ff ff       	call   102180 <virtual_map.constprop.2>
  10237c:	83 c4 10             	add    esp,0x10
  10237f:	e9 07 ff ff ff       	jmp    10228b <virtual_map.constprop.2+0x10b>
  102384:	8d 74 26 00          	lea    esi,[esi+eiz*1+0x0]
        if (PHYSICAL_IS_USED(addr + i * PAGE_SIZE))
  102388:	8b 5c 24 10          	mov    ebx,DWORD PTR [esp+0x10]
  10238c:	e9 6f ff ff ff       	jmp    102300 <virtual_map.constprop.2+0x180>
  102391:	eb 0d                	jmp    1023a0 <physical_is_used>
  102393:	90                   	nop
  102394:	90                   	nop
  102395:	90                   	nop
  102396:	90                   	nop
  102397:	90                   	nop
  102398:	90                   	nop
  102399:	90                   	nop
  10239a:	90                   	nop
  10239b:	90                   	nop
  10239c:	90                   	nop
  10239d:	90                   	nop
  10239e:	90                   	nop
  10239f:	90                   	nop

001023a0 <physical_is_used>:
{
  1023a0:	57                   	push   edi
  1023a1:	56                   	push   esi
  1023a2:	53                   	push   ebx
  1023a3:	8b 7c 24 14          	mov    edi,DWORD PTR [esp+0x14]
  1023a7:	8b 5c 24 10          	mov    ebx,DWORD PTR [esp+0x10]
    for (uint i = 0; i < count; i++)
  1023ab:	85 ff                	test   edi,edi
  1023ad:	74 61                	je     102410 <physical_is_used+0x70>
        if (PHYSICAL_IS_USED(addr + i * PAGE_SIZE))
  1023af:	89 d8                	mov    eax,ebx
  1023b1:	89 d9                	mov    ecx,ebx
  1023b3:	c1 e8 0f             	shr    eax,0xf
  1023b6:	c1 e9 0c             	shr    ecx,0xc
  1023b9:	0f b6 80 00 a0 21 00 	movzx  eax,BYTE PTR [eax+0x21a000]
  1023c0:	83 e1 07             	and    ecx,0x7
  1023c3:	d3 f8                	sar    eax,cl
  1023c5:	83 e0 01             	and    eax,0x1
  1023c8:	75 36                	jne    102400 <physical_is_used+0x60>
  1023ca:	81 c3 00 10 00 00    	add    ebx,0x1000
    for (uint i = 0; i < count; i++)
  1023d0:	31 f6                	xor    esi,esi
  1023d2:	eb 25                	jmp    1023f9 <physical_is_used+0x59>
  1023d4:	8d 74 26 00          	lea    esi,[esi+eiz*1+0x0]
        if (PHYSICAL_IS_USED(addr + i * PAGE_SIZE))
  1023d8:	89 da                	mov    edx,ebx
  1023da:	89 d9                	mov    ecx,ebx
  1023dc:	81 c3 00 10 00 00    	add    ebx,0x1000
  1023e2:	c1 ea 0f             	shr    edx,0xf
  1023e5:	c1 e9 0c             	shr    ecx,0xc
  1023e8:	0f b6 92 00 a0 21 00 	movzx  edx,BYTE PTR [edx+0x21a000]
  1023ef:	83 e1 07             	and    ecx,0x7
  1023f2:	d3 fa                	sar    edx,cl
  1023f4:	83 e2 01             	and    edx,0x1
  1023f7:	75 0f                	jne    102408 <physical_is_used+0x68>
    for (uint i = 0; i < count; i++)
  1023f9:	83 c6 01             	add    esi,0x1
  1023fc:	39 f7                	cmp    edi,esi
  1023fe:	75 d8                	jne    1023d8 <physical_is_used+0x38>
}
  102400:	5b                   	pop    ebx
  102401:	5e                   	pop    esi
  102402:	5f                   	pop    edi
  102403:	c3                   	ret    
  102404:	8d 74 26 00          	lea    esi,[esi+eiz*1+0x0]
  102408:	5b                   	pop    ebx
            return 1;
  102409:	89 d0                	mov    eax,edx
}
  10240b:	5e                   	pop    esi
  10240c:	5f                   	pop    edi
  10240d:	c3                   	ret    
  10240e:	66 90                	xchg   ax,ax
    return 0;
  102410:	31 c0                	xor    eax,eax
  102412:	eb ec                	jmp    102400 <physical_is_used+0x60>
  102414:	8d b6 00 00 00 00    	lea    esi,[esi+0x0]
  10241a:	8d bf 00 00 00 00    	lea    edi,[edi+0x0]

00102420 <physical_set_used>:
{
  102420:	55                   	push   ebp
  102421:	57                   	push   edi
  102422:	56                   	push   esi
  102423:	53                   	push   ebx
  102424:	83 ec 10             	sub    esp,0x10
  102427:	8b 74 24 28          	mov    esi,DWORD PTR [esp+0x28]
  10242b:	8b 5c 24 24          	mov    ebx,DWORD PTR [esp+0x24]
    log("P_S_USED ADDR=0x%x COUNT=%d", addr, count);
  10242f:	56                   	push   esi
  102430:	53                   	push   ebx
  102431:	68 a7 20 11 00       	push   0x1120a7
  102436:	e8 65 f2 ff ff       	call   1016a0 <log>
    for (uint i = 0; i < count; i++)
  10243b:	83 c4 10             	add    esp,0x10
  10243e:	85 f6                	test   esi,esi
  102440:	74 34                	je     102476 <physical_set_used+0x56>
  102442:	31 c0                	xor    eax,eax
        PHYSICAL_SET_USED(addr + (i * PAGE_SIZE));
  102444:	bf 01 00 00 00       	mov    edi,0x1
  102449:	8d b4 26 00 00 00 00 	lea    esi,[esi+eiz*1+0x0]
  102450:	89 d9                	mov    ecx,ebx
  102452:	89 da                	mov    edx,ebx
  102454:	89 fd                	mov    ebp,edi
  102456:	c1 e9 0c             	shr    ecx,0xc
  102459:	c1 ea 0f             	shr    edx,0xf
    for (uint i = 0; i < count; i++)
  10245c:	83 c0 01             	add    eax,0x1
        PHYSICAL_SET_USED(addr + (i * PAGE_SIZE));
  10245f:	83 e1 07             	and    ecx,0x7
  102462:	81 c3 00 10 00 00    	add    ebx,0x1000
  102468:	d3 e5                	shl    ebp,cl
  10246a:	89 e9                	mov    ecx,ebp
  10246c:	08 8a 00 a0 21 00    	or     BYTE PTR [edx+0x21a000],cl
    for (uint i = 0; i < count; i++)
  102472:	39 c6                	cmp    esi,eax
  102474:	75 da                	jne    102450 <physical_set_used+0x30>
}
  102476:	83 c4 0c             	add    esp,0xc
  102479:	5b                   	pop    ebx
  10247a:	5e                   	pop    esi
  10247b:	5f                   	pop    edi
  10247c:	5d                   	pop    ebp
  10247d:	c3                   	ret    
  10247e:	66 90                	xchg   ax,ax

00102480 <physical_set_free>:
{
  102480:	55                   	push   ebp
  102481:	57                   	push   edi
  102482:	56                   	push   esi
  102483:	53                   	push   ebx
  102484:	83 ec 10             	sub    esp,0x10
  102487:	8b 7c 24 28          	mov    edi,DWORD PTR [esp+0x28]
  10248b:	8b 5c 24 24          	mov    ebx,DWORD PTR [esp+0x24]
    log("P_S_FREE ADDR=%d COUNT=%d", addr, count);
  10248f:	57                   	push   edi
  102490:	53                   	push   ebx
  102491:	68 c3 20 11 00       	push   0x1120c3
  102496:	e8 05 f2 ff ff       	call   1016a0 <log>
    for (uint i = 0; i < count; i++)
  10249b:	83 c4 10             	add    esp,0x10
  10249e:	85 ff                	test   edi,edi
  1024a0:	74 34                	je     1024d6 <physical_set_free+0x56>
  1024a2:	31 d2                	xor    edx,edx
        PHYSICAL_SET_FREE(addr + (i * PAGE_SIZE));
  1024a4:	bd 01 00 00 00       	mov    ebp,0x1
  1024a9:	8d b4 26 00 00 00 00 	lea    esi,[esi+eiz*1+0x0]
  1024b0:	89 d9                	mov    ecx,ebx
  1024b2:	89 de                	mov    esi,ebx
  1024b4:	89 e8                	mov    eax,ebp
  1024b6:	c1 e9 0c             	shr    ecx,0xc
  1024b9:	c1 ee 0f             	shr    esi,0xf
    for (uint i = 0; i < count; i++)
  1024bc:	83 c2 01             	add    edx,0x1
        PHYSICAL_SET_FREE(addr + (i * PAGE_SIZE));
  1024bf:	83 e1 07             	and    ecx,0x7
  1024c2:	81 c3 00 10 00 00    	add    ebx,0x1000
  1024c8:	d3 e0                	shl    eax,cl
  1024ca:	f7 d0                	not    eax
  1024cc:	20 86 00 a0 21 00    	and    BYTE PTR [esi+0x21a000],al
    for (uint i = 0; i < count; i++)
  1024d2:	39 d7                	cmp    edi,edx
  1024d4:	75 da                	jne    1024b0 <physical_set_free+0x30>
}
  1024d6:	83 c4 0c             	add    esp,0xc
  1024d9:	5b                   	pop    ebx
  1024da:	5e                   	pop    esi
  1024db:	5f                   	pop    edi
  1024dc:	5d                   	pop    ebp
  1024dd:	c3                   	ret    
  1024de:	66 90                	xchg   ax,ax

001024e0 <physical_alloc>:
{
  1024e0:	55                   	push   ebp
  1024e1:	57                   	push   edi
  1024e2:	56                   	push   esi
  1024e3:	53                   	push   ebx
  1024e4:	83 ec 24             	sub    esp,0x24
  1024e7:	8b 7c 24 38          	mov    edi,DWORD PTR [esp+0x38]
    log("PALLOC COUNT=%d", count);
  1024eb:	57                   	push   edi
  1024ec:	68 82 20 11 00       	push   0x112082
  1024f1:	e8 aa f1 ff ff       	call   1016a0 <log>
    for (uint i = 0; i < (TOTAL_MEMORY / PAGE_SIZE); i++)
  1024f6:	8b 2d 10 ae 23 00    	mov    ebp,DWORD PTR ds:0x23ae10
  1024fc:	83 c4 10             	add    esp,0x10
  1024ff:	c1 ed 0c             	shr    ebp,0xc
  102502:	85 ed                	test   ebp,ebp
  102504:	0f 84 b3 00 00 00    	je     1025bd <physical_alloc+0xdd>
  10250a:	c1 e5 0c             	shl    ebp,0xc
  10250d:	89 6c 24 0c          	mov    DWORD PTR [esp+0xc],ebp
  102511:	31 ed                	xor    ebp,ebp
  102513:	90                   	nop
  102514:	8d 74 26 00          	lea    esi,[esi+eiz*1+0x0]
    for (uint i = 0; i < count; i++)
  102518:	85 ff                	test   edi,edi
  10251a:	0f 84 d0 00 00 00    	je     1025f0 <physical_alloc+0x110>
        if (PHYSICAL_IS_USED(addr + i * PAGE_SIZE))
  102520:	89 e8                	mov    eax,ebp
  102522:	8d b5 00 10 00 00    	lea    esi,[ebp+0x1000]
  102528:	c1 e8 0f             	shr    eax,0xf
  10252b:	0f b6 90 00 a0 21 00 	movzx  edx,BYTE PTR [eax+0x21a000]
  102532:	89 e8                	mov    eax,ebp
  102534:	c1 e8 0c             	shr    eax,0xc
  102537:	83 e0 07             	and    eax,0x7
  10253a:	0f a3 c2             	bt     edx,eax
  10253d:	0f 82 8d 00 00 00    	jb     1025d0 <physical_alloc+0xf0>
  102543:	89 f0                	mov    eax,esi
    for (uint i = 0; i < count; i++)
  102545:	31 db                	xor    ebx,ebx
  102547:	eb 25                	jmp    10256e <physical_alloc+0x8e>
  102549:	8d b4 26 00 00 00 00 	lea    esi,[esi+eiz*1+0x0]
        if (PHYSICAL_IS_USED(addr + i * PAGE_SIZE))
  102550:	89 c2                	mov    edx,eax
  102552:	c1 ea 0f             	shr    edx,0xf
  102555:	0f b6 8a 00 a0 21 00 	movzx  ecx,BYTE PTR [edx+0x21a000]
  10255c:	89 c2                	mov    edx,eax
  10255e:	05 00 10 00 00       	add    eax,0x1000
  102563:	c1 ea 0c             	shr    edx,0xc
  102566:	83 e2 07             	and    edx,0x7
  102569:	0f a3 d1             	bt     ecx,edx
  10256c:	72 62                	jb     1025d0 <physical_alloc+0xf0>
    for (uint i = 0; i < count; i++)
  10256e:	83 c3 01             	add    ebx,0x1
  102571:	39 df                	cmp    edi,ebx
  102573:	75 db                	jne    102550 <physical_alloc+0x70>
    log("P_S_USED ADDR=0x%x COUNT=%d", addr, count);
  102575:	83 ec 04             	sub    esp,0x4
        PHYSICAL_SET_USED(addr + (i * PAGE_SIZE));
  102578:	bf 01 00 00 00       	mov    edi,0x1
    log("P_S_USED ADDR=0x%x COUNT=%d", addr, count);
  10257d:	53                   	push   ebx
  10257e:	55                   	push   ebp
  10257f:	68 a7 20 11 00       	push   0x1120a7
  102584:	e8 17 f1 ff ff       	call   1016a0 <log>
  102589:	83 c4 10             	add    esp,0x10
  10258c:	89 e8                	mov    eax,ebp
    for (uint i = 0; i < count; i++)
  10258e:	31 d2                	xor    edx,edx
  102590:	89 6c 24 0c          	mov    DWORD PTR [esp+0xc],ebp
        PHYSICAL_SET_USED(addr + (i * PAGE_SIZE));
  102594:	89 c1                	mov    ecx,eax
  102596:	89 c6                	mov    esi,eax
  102598:	89 fd                	mov    ebp,edi
  10259a:	c1 e9 0c             	shr    ecx,0xc
  10259d:	c1 ee 0f             	shr    esi,0xf
    for (uint i = 0; i < count; i++)
  1025a0:	83 c2 01             	add    edx,0x1
        PHYSICAL_SET_USED(addr + (i * PAGE_SIZE));
  1025a3:	83 e1 07             	and    ecx,0x7
  1025a6:	05 00 10 00 00       	add    eax,0x1000
  1025ab:	d3 e5                	shl    ebp,cl
  1025ad:	89 e9                	mov    ecx,ebp
  1025af:	08 8e 00 a0 21 00    	or     BYTE PTR [esi+0x21a000],cl
    for (uint i = 0; i < count; i++)
  1025b5:	39 d3                	cmp    ebx,edx
  1025b7:	75 db                	jne    102594 <physical_alloc+0xb4>
  1025b9:	8b 6c 24 0c          	mov    ebp,DWORD PTR [esp+0xc]
}
  1025bd:	83 c4 1c             	add    esp,0x1c
  1025c0:	89 e8                	mov    eax,ebp
  1025c2:	5b                   	pop    ebx
  1025c3:	5e                   	pop    esi
  1025c4:	5f                   	pop    edi
  1025c5:	5d                   	pop    ebp
  1025c6:	c3                   	ret    
  1025c7:	89 f6                	mov    esi,esi
  1025c9:	8d bc 27 00 00 00 00 	lea    edi,[edi+eiz*1+0x0]
    for (uint i = 0; i < (TOTAL_MEMORY / PAGE_SIZE); i++)
  1025d0:	39 74 24 0c          	cmp    DWORD PTR [esp+0xc],esi
  1025d4:	89 f5                	mov    ebp,esi
  1025d6:	0f 85 3c ff ff ff    	jne    102518 <physical_alloc+0x38>
}
  1025dc:	83 c4 1c             	add    esp,0x1c
    return 0;
  1025df:	31 ed                	xor    ebp,ebp
}
  1025e1:	5b                   	pop    ebx
  1025e2:	89 e8                	mov    eax,ebp
  1025e4:	5e                   	pop    esi
  1025e5:	5f                   	pop    edi
  1025e6:	5d                   	pop    ebp
  1025e7:	c3                   	ret    
  1025e8:	90                   	nop
  1025e9:	8d b4 26 00 00 00 00 	lea    esi,[esi+eiz*1+0x0]
    log("P_S_USED ADDR=0x%x COUNT=%d", addr, count);
  1025f0:	83 ec 04             	sub    esp,0x4
  1025f3:	6a 00                	push   0x0
  1025f5:	55                   	push   ebp
  1025f6:	68 a7 20 11 00       	push   0x1120a7
  1025fb:	e8 a0 f0 ff ff       	call   1016a0 <log>
  102600:	83 c4 10             	add    esp,0x10
}
  102603:	89 e8                	mov    eax,ebp
  102605:	83 c4 1c             	add    esp,0x1c
  102608:	5b                   	pop    ebx
  102609:	5e                   	pop    esi
  10260a:	5f                   	pop    edi
  10260b:	5d                   	pop    ebp
  10260c:	c3                   	ret    
  10260d:	8d 76 00             	lea    esi,[esi+0x0]

00102610 <physical_free>:
{
  102610:	55                   	push   ebp
  102611:	57                   	push   edi
  102612:	56                   	push   esi
  102613:	53                   	push   ebx
  102614:	83 ec 10             	sub    esp,0x10
  102617:	8b 7c 24 28          	mov    edi,DWORD PTR [esp+0x28]
  10261b:	8b 5c 24 24          	mov    ebx,DWORD PTR [esp+0x24]
    log("P_S_FREE ADDR=%d COUNT=%d", addr, count);
  10261f:	57                   	push   edi
  102620:	53                   	push   ebx
  102621:	68 c3 20 11 00       	push   0x1120c3
  102626:	e8 75 f0 ff ff       	call   1016a0 <log>
    for (uint i = 0; i < count; i++)
  10262b:	83 c4 10             	add    esp,0x10
  10262e:	85 ff                	test   edi,edi
  102630:	74 34                	je     102666 <physical_free+0x56>
  102632:	31 d2                	xor    edx,edx
        PHYSICAL_SET_FREE(addr + (i * PAGE_SIZE));
  102634:	bd 01 00 00 00       	mov    ebp,0x1
  102639:	8d b4 26 00 00 00 00 	lea    esi,[esi+eiz*1+0x0]
  102640:	89 d9                	mov    ecx,ebx
  102642:	89 de                	mov    esi,ebx
  102644:	89 e8                	mov    eax,ebp
  102646:	c1 e9 0c             	shr    ecx,0xc
  102649:	c1 ee 0f             	shr    esi,0xf
    for (uint i = 0; i < count; i++)
  10264c:	83 c2 01             	add    edx,0x1
        PHYSICAL_SET_FREE(addr + (i * PAGE_SIZE));
  10264f:	83 e1 07             	and    ecx,0x7
  102652:	81 c3 00 10 00 00    	add    ebx,0x1000
  102658:	d3 e0                	shl    eax,cl
  10265a:	f7 d0                	not    eax
  10265c:	20 86 00 a0 21 00    	and    BYTE PTR [esi+0x21a000],al
    for (uint i = 0; i < count; i++)
  102662:	39 d7                	cmp    edi,edx
  102664:	75 da                	jne    102640 <physical_free+0x30>
}
  102666:	83 c4 0c             	add    esp,0xc
  102669:	5b                   	pop    ebx
  10266a:	5e                   	pop    esi
  10266b:	5f                   	pop    edi
  10266c:	5d                   	pop    ebp
  10266d:	c3                   	ret    
  10266e:	66 90                	xchg   ax,ax

00102670 <virtual_absent>:
{
  102670:	55                   	push   ebp
  102671:	57                   	push   edi
  102672:	56                   	push   esi
  102673:	53                   	push   ebx
  102674:	8b 7c 24 1c          	mov    edi,DWORD PTR [esp+0x1c]
  102678:	8b 74 24 14          	mov    esi,DWORD PTR [esp+0x14]
  10267c:	8b 54 24 18          	mov    edx,DWORD PTR [esp+0x18]
    for (uint i = 0; i < count; i++)
  102680:	85 ff                	test   edi,edi
  102682:	74 6c                	je     1026f0 <virtual_absent+0x80>
  102684:	31 c9                	xor    ecx,ecx
    int absent = 1;
  102686:	b8 01 00 00 00       	mov    eax,0x1
  10268b:	90                   	nop
  10268c:	8d 74 26 00          	lea    esi,[esi+eiz*1+0x0]
        uint pdi = PD_INDEX(vaddr + offset);
  102690:	89 d3                	mov    ebx,edx
  102692:	c1 eb 16             	shr    ebx,0x16
        if (pde->Present)
  102695:	f6 04 9e 01          	test   BYTE PTR [esi+ebx*4],0x1
  102699:	74 3b                	je     1026d6 <virtual_absent+0x66>
            absent = absent && !p->Present;
  10269b:	85 c0                	test   eax,eax
  10269d:	74 37                	je     1026d6 <virtual_absent+0x66>
            page_table_t *ptable = (page_table_t *)(pde->PageFrameNumber * PAGE_SIZE);
  10269f:	0f b6 44 9e 01       	movzx  eax,BYTE PTR [esi+ebx*4+0x1]
  1026a4:	c0 e8 04             	shr    al,0x4
  1026a7:	0f b6 e8             	movzx  ebp,al
  1026aa:	0f b6 44 9e 02       	movzx  eax,BYTE PTR [esi+ebx*4+0x2]
  1026af:	c1 e0 04             	shl    eax,0x4
  1026b2:	09 c5                	or     ebp,eax
  1026b4:	0f b6 44 9e 03       	movzx  eax,BYTE PTR [esi+ebx*4+0x3]
        uint pti = PT_INDEX(vaddr + offset);
  1026b9:	89 d3                	mov    ebx,edx
  1026bb:	c1 eb 0c             	shr    ebx,0xc
  1026be:	81 e3 ff 03 00 00    	and    ebx,0x3ff
            page_table_t *ptable = (page_table_t *)(pde->PageFrameNumber * PAGE_SIZE);
  1026c4:	c1 e0 0c             	shl    eax,0xc
  1026c7:	09 e8                	or     eax,ebp
            absent = absent && !p->Present;
  1026c9:	c1 e0 0c             	shl    eax,0xc
  1026cc:	0f b6 04 98          	movzx  eax,BYTE PTR [eax+ebx*4]
  1026d0:	83 f0 01             	xor    eax,0x1
  1026d3:	83 e0 01             	and    eax,0x1
    for (uint i = 0; i < count; i++)
  1026d6:	83 c1 01             	add    ecx,0x1
  1026d9:	81 c2 00 10 00 00    	add    edx,0x1000
  1026df:	39 cf                	cmp    edi,ecx
  1026e1:	75 ad                	jne    102690 <virtual_absent+0x20>
}
  1026e3:	5b                   	pop    ebx
  1026e4:	5e                   	pop    esi
  1026e5:	5f                   	pop    edi
  1026e6:	5d                   	pop    ebp
  1026e7:	c3                   	ret    
  1026e8:	90                   	nop
  1026e9:	8d b4 26 00 00 00 00 	lea    esi,[esi+eiz*1+0x0]
  1026f0:	5b                   	pop    ebx
    int absent = 1;
  1026f1:	b8 01 00 00 00       	mov    eax,0x1
}
  1026f6:	5e                   	pop    esi
  1026f7:	5f                   	pop    edi
  1026f8:	5d                   	pop    ebp
  1026f9:	c3                   	ret    
  1026fa:	8d b6 00 00 00 00    	lea    esi,[esi+0x0]

00102700 <virtual_present>:
{
  102700:	55                   	push   ebp
  102701:	57                   	push   edi
  102702:	56                   	push   esi
  102703:	53                   	push   ebx
  102704:	83 ec 0c             	sub    esp,0xc
    for (uint i = 0; i < count; i++)
  102707:	8b 44 24 28          	mov    eax,DWORD PTR [esp+0x28]
{
  10270b:	8b 5c 24 20          	mov    ebx,DWORD PTR [esp+0x20]
    for (uint i = 0; i < count; i++)
  10270f:	85 c0                	test   eax,eax
  102711:	0f 84 ae 00 00 00    	je     1027c5 <virtual_present+0xc5>
        uint pdi = PD_INDEX(vaddr + offset);
  102717:	8b 7c 24 24          	mov    edi,DWORD PTR [esp+0x24]
        uint pti = PT_INDEX(vaddr + offset);
  10271b:	8b 54 24 24          	mov    edx,DWORD PTR [esp+0x24]
        uint pdi = PD_INDEX(vaddr + offset);
  10271f:	c1 ef 16             	shr    edi,0x16
        uint pti = PT_INDEX(vaddr + offset);
  102722:	c1 ea 0c             	shr    edx,0xc
  102725:	81 e2 ff 03 00 00    	and    edx,0x3ff
        if (!pde->Present)
  10272b:	f6 04 bb 01          	test   BYTE PTR [ebx+edi*4],0x1
  10272f:	0f 84 bb 00 00 00    	je     1027f0 <virtual_present+0xf0>
        page_table_t *ptable = (page_table_t *)(pde->PageFrameNumber * PAGE_SIZE);
  102735:	0f b6 4c bb 01       	movzx  ecx,BYTE PTR [ebx+edi*4+0x1]
  10273a:	0f b6 44 bb 02       	movzx  eax,BYTE PTR [ebx+edi*4+0x2]
  10273f:	c0 e9 04             	shr    cl,0x4
  102742:	c1 e0 04             	shl    eax,0x4
  102745:	0f b6 f1             	movzx  esi,cl
  102748:	09 f0                	or     eax,esi
  10274a:	89 c1                	mov    ecx,eax
  10274c:	0f b6 44 bb 03       	movzx  eax,BYTE PTR [ebx+edi*4+0x3]
  102751:	c1 e0 0c             	shl    eax,0xc
  102754:	09 c8                	or     eax,ecx
        if (!p->Present)
  102756:	c1 e0 0c             	shl    eax,0xc
  102759:	f6 04 90 01          	test   BYTE PTR [eax+edx*4],0x1
  10275d:	0f 84 8d 00 00 00    	je     1027f0 <virtual_present+0xf0>
  102763:	8b 44 24 24          	mov    eax,DWORD PTR [esp+0x24]
    for (uint i = 0; i < count; i++)
  102767:	31 ed                	xor    ebp,ebp
  102769:	8d b0 00 10 00 00    	lea    esi,[eax+0x1000]
  10276f:	eb 4b                	jmp    1027bc <virtual_present+0xbc>
  102771:	8d b4 26 00 00 00 00 	lea    esi,[esi+eiz*1+0x0]
        uint pdi = PD_INDEX(vaddr + offset);
  102778:	89 f1                	mov    ecx,esi
        uint pti = PT_INDEX(vaddr + offset);
  10277a:	89 f7                	mov    edi,esi
  10277c:	c1 ef 0c             	shr    edi,0xc
        uint pdi = PD_INDEX(vaddr + offset);
  10277f:	c1 e9 16             	shr    ecx,0x16
        uint pti = PT_INDEX(vaddr + offset);
  102782:	81 e7 ff 03 00 00    	and    edi,0x3ff
        if (!pde->Present)
  102788:	f6 04 8b 01          	test   BYTE PTR [ebx+ecx*4],0x1
  10278c:	74 62                	je     1027f0 <virtual_present+0xf0>
        page_table_t *ptable = (page_table_t *)(pde->PageFrameNumber * PAGE_SIZE);
  10278e:	0f b6 54 8b 01       	movzx  edx,BYTE PTR [ebx+ecx*4+0x1]
  102793:	0f b6 44 8b 02       	movzx  eax,BYTE PTR [ebx+ecx*4+0x2]
  102798:	81 c6 00 10 00 00    	add    esi,0x1000
  10279e:	c0 ea 04             	shr    dl,0x4
  1027a1:	c1 e0 04             	shl    eax,0x4
  1027a4:	0f b6 d2             	movzx  edx,dl
  1027a7:	09 c2                	or     edx,eax
  1027a9:	0f b6 44 8b 03       	movzx  eax,BYTE PTR [ebx+ecx*4+0x3]
  1027ae:	c1 e0 0c             	shl    eax,0xc
  1027b1:	09 d0                	or     eax,edx
        if (!p->Present)
  1027b3:	c1 e0 0c             	shl    eax,0xc
  1027b6:	f6 04 b8 01          	test   BYTE PTR [eax+edi*4],0x1
  1027ba:	74 34                	je     1027f0 <virtual_present+0xf0>
    for (uint i = 0; i < count; i++)
  1027bc:	83 c5 01             	add    ebp,0x1
  1027bf:	39 6c 24 28          	cmp    DWORD PTR [esp+0x28],ebp
  1027c3:	75 b3                	jne    102778 <virtual_present+0x78>
    log("0x%x present!", vaddr);
  1027c5:	83 ec 08             	sub    esp,0x8
  1027c8:	ff 74 24 2c          	push   DWORD PTR [esp+0x2c]
  1027cc:	68 ea 20 11 00       	push   0x1120ea
  1027d1:	e8 ca ee ff ff       	call   1016a0 <log>
    return 1;
  1027d6:	83 c4 10             	add    esp,0x10
  1027d9:	b8 01 00 00 00       	mov    eax,0x1
}
  1027de:	83 c4 0c             	add    esp,0xc
  1027e1:	5b                   	pop    ebx
  1027e2:	5e                   	pop    esi
  1027e3:	5f                   	pop    edi
  1027e4:	5d                   	pop    ebp
  1027e5:	c3                   	ret    
  1027e6:	8d 76 00             	lea    esi,[esi+0x0]
  1027e9:	8d bc 27 00 00 00 00 	lea    edi,[edi+eiz*1+0x0]
            log("0x%x absent!", vaddr);
  1027f0:	83 ec 08             	sub    esp,0x8
  1027f3:	ff 74 24 2c          	push   DWORD PTR [esp+0x2c]
  1027f7:	68 dd 20 11 00       	push   0x1120dd
  1027fc:	e8 9f ee ff ff       	call   1016a0 <log>
            return 0;
  102801:	83 c4 10             	add    esp,0x10
  102804:	31 c0                	xor    eax,eax
}
  102806:	83 c4 0c             	add    esp,0xc
  102809:	5b                   	pop    ebx
  10280a:	5e                   	pop    esi
  10280b:	5f                   	pop    edi
  10280c:	5d                   	pop    ebp
  10280d:	c3                   	ret    
  10280e:	66 90                	xchg   ax,ax

00102810 <virtual2physical>:
{
  102810:	56                   	push   esi
  102811:	53                   	push   ebx
  102812:	8b 4c 24 10          	mov    ecx,DWORD PTR [esp+0x10]
  102816:	8b 5c 24 0c          	mov    ebx,DWORD PTR [esp+0xc]
    uint pdi = PD_INDEX(vaddr);
  10281a:	89 ce                	mov    esi,ecx
  10281c:	c1 ee 16             	shr    esi,0x16
    page_table_t *ptable = (page_table_t *)(pde->PageFrameNumber * PAGE_SIZE);
  10281f:	0f b6 44 b3 01       	movzx  eax,BYTE PTR [ebx+esi*4+0x1]
  102824:	0f b6 54 b3 02       	movzx  edx,BYTE PTR [ebx+esi*4+0x2]
  102829:	c0 e8 04             	shr    al,0x4
  10282c:	c1 e2 04             	shl    edx,0x4
  10282f:	0f b6 c0             	movzx  eax,al
  102832:	09 d0                	or     eax,edx
  102834:	0f b6 54 b3 03       	movzx  edx,BYTE PTR [ebx+esi*4+0x3]
}
  102839:	5b                   	pop    ebx
  10283a:	5e                   	pop    esi
    page_table_t *ptable = (page_table_t *)(pde->PageFrameNumber * PAGE_SIZE);
  10283b:	c1 e2 0c             	shl    edx,0xc
  10283e:	09 c2                	or     edx,eax
    uint pti = PT_INDEX(vaddr);
  102840:	89 c8                	mov    eax,ecx
    return ((p->PageFrameNumber & ~0xfff) + (vaddr & 0xfff));
  102842:	81 e1 ff 0f 00 00    	and    ecx,0xfff
    uint pti = PT_INDEX(vaddr);
  102848:	c1 e8 0c             	shr    eax,0xc
    return ((p->PageFrameNumber & ~0xfff) + (vaddr & 0xfff));
  10284b:	c1 e2 0c             	shl    edx,0xc
    uint pti = PT_INDEX(vaddr);
  10284e:	25 ff 03 00 00       	and    eax,0x3ff
    return ((p->PageFrameNumber & ~0xfff) + (vaddr & 0xfff));
  102853:	8b 04 82             	mov    eax,DWORD PTR [edx+eax*4]
  102856:	c1 e8 0c             	shr    eax,0xc
  102859:	25 00 f0 ff ff       	and    eax,0xfffff000
  10285e:	09 c8                	or     eax,ecx
}
  102860:	c3                   	ret    
  102861:	eb 0d                	jmp    102870 <virtual_map>
  102863:	90                   	nop
  102864:	90                   	nop
  102865:	90                   	nop
  102866:	90                   	nop
  102867:	90                   	nop
  102868:	90                   	nop
  102869:	90                   	nop
  10286a:	90                   	nop
  10286b:	90                   	nop
  10286c:	90                   	nop
  10286d:	90                   	nop
  10286e:	90                   	nop
  10286f:	90                   	nop

00102870 <virtual_map>:
{
  102870:	55                   	push   ebp
  102871:	57                   	push   edi
  102872:	56                   	push   esi
  102873:	53                   	push   ebx
  102874:	83 ec 2c             	sub    esp,0x2c
  102877:	8b 5c 24 50          	mov    ebx,DWORD PTR [esp+0x50]
    log("VMAP VADDR=0x%x PADDR=0x%x COUNT=%d", vaddr, paddr, count);
  10287b:	ff 74 24 4c          	push   DWORD PTR [esp+0x4c]
  10287f:	ff 74 24 4c          	push   DWORD PTR [esp+0x4c]
  102883:	ff 74 24 4c          	push   DWORD PTR [esp+0x4c]
  102887:	68 b4 65 11 00       	push   0x1165b4
  10288c:	e8 0f ee ff ff       	call   1016a0 <log>
    for (uint i = 0; i < count; i++)
  102891:	83 c4 10             	add    esp,0x10
  102894:	8b 4c 24 4c          	mov    ecx,DWORD PTR [esp+0x4c]
  102898:	85 c9                	test   ecx,ecx
  10289a:	0f 84 78 01 00 00    	je     102a18 <virtual_map+0x1a8>
  1028a0:	8b 44 24 44          	mov    eax,DWORD PTR [esp+0x44]
  1028a4:	83 e3 01             	and    ebx,0x1
  1028a7:	c7 44 24 0c 00 00 00 	mov    DWORD PTR [esp+0xc],0x0
  1028ae:	00 
  1028af:	89 44 24 10          	mov    DWORD PTR [esp+0x10],eax
            pde->User = user;
  1028b3:	8d 04 9d 00 00 00 00 	lea    eax,[ebx*4+0x0]
  1028ba:	88 44 24 1f          	mov    BYTE PTR [esp+0x1f],al
  1028be:	eb 7b                	jmp    10293b <virtual_map+0xcb>
  1028c0:	89 c7                	mov    edi,eax
        page_table_t *ptable = (page_table_t *)(pde->PageFrameNumber * PAGE_SIZE);
  1028c2:	0f b6 44 b0 01       	movzx  eax,BYTE PTR [eax+esi*4+0x1]
  1028c7:	88 44 24 14          	mov    BYTE PTR [esp+0x14],al
  1028cb:	0f b6 5c b7 02       	movzx  ebx,BYTE PTR [edi+esi*4+0x2]
  1028d0:	c0 e8 04             	shr    al,0x4
  1028d3:	0f b6 c0             	movzx  eax,al
  1028d6:	c1 e3 04             	shl    ebx,0x4
  1028d9:	09 d8                	or     eax,ebx
  1028db:	0f b6 5c b7 03       	movzx  ebx,BYTE PTR [edi+esi*4+0x3]
  1028e0:	c1 e3 0c             	shl    ebx,0xc
  1028e3:	09 c3                	or     ebx,eax
  1028e5:	c1 e3 0c             	shl    ebx,0xc
        p->Present = 1;
  1028e8:	0f b6 04 ab          	movzx  eax,BYTE PTR [ebx+ebp*4]
        p->PageFrameNumber = (paddr + offset) >> 12;
  1028ec:	8b 74 24 10          	mov    esi,DWORD PTR [esp+0x10]
        p->Present = 1;
  1028f0:	83 c8 01             	or     eax,0x1
        p->User = user;
  1028f3:	83 e0 fb             	and    eax,0xfffffffb
  1028f6:	0a 44 24 1f          	or     al,BYTE PTR [esp+0x1f]
        p->Write = 1;
  1028fa:	83 c8 02             	or     eax,0x2
  1028fd:	88 04 ab             	mov    BYTE PTR [ebx+ebp*4],al
        p->PageFrameNumber = (paddr + offset) >> 12;
  102900:	8b 44 24 48          	mov    eax,DWORD PTR [esp+0x48]
  102904:	2b 44 24 44          	sub    eax,DWORD PTR [esp+0x44]
  102908:	01 f0                	add    eax,esi
  10290a:	81 c6 00 10 00 00    	add    esi,0x1000
  102910:	25 00 f0 ff ff       	and    eax,0xfffff000
  102915:	89 c2                	mov    edx,eax
  102917:	8b 04 ab             	mov    eax,DWORD PTR [ebx+ebp*4]
  10291a:	25 ff 0f 00 00       	and    eax,0xfff
  10291f:	09 d0                	or     eax,edx
  102921:	89 04 ab             	mov    DWORD PTR [ebx+ebp*4],eax
    for (uint i = 0; i < count; i++)
  102924:	83 44 24 0c 01       	add    DWORD PTR [esp+0xc],0x1
  102929:	8b 44 24 0c          	mov    eax,DWORD PTR [esp+0xc]
  10292d:	39 44 24 4c          	cmp    DWORD PTR [esp+0x4c],eax
  102931:	89 74 24 10          	mov    DWORD PTR [esp+0x10],esi
  102935:	0f 84 dd 00 00 00    	je     102a18 <virtual_map+0x1a8>
        uint pdi = PD_INDEX(vaddr + offset);
  10293b:	8b 44 24 10          	mov    eax,DWORD PTR [esp+0x10]
  10293f:	89 c6                	mov    esi,eax
        uint pti = PT_INDEX(vaddr + offset);
  102941:	c1 e8 0c             	shr    eax,0xc
  102944:	25 ff 03 00 00       	and    eax,0x3ff
        uint pdi = PD_INDEX(vaddr + offset);
  102949:	c1 ee 16             	shr    esi,0x16
        uint pti = PT_INDEX(vaddr + offset);
  10294c:	89 c5                	mov    ebp,eax
        if (!pde->Present)
  10294e:	8b 44 24 40          	mov    eax,DWORD PTR [esp+0x40]
  102952:	f6 04 b0 01          	test   BYTE PTR [eax+esi*4],0x1
  102956:	0f 85 64 ff ff ff    	jne    1028c0 <virtual_map+0x50>
            log("Missing page table! Allocating a new one");
  10295c:	83 ec 0c             	sub    esp,0xc
  10295f:	68 d8 65 11 00       	push   0x1165d8
  102964:	e8 37 ed ff ff       	call   1016a0 <log>
    atomic_begin();
  102969:	e8 d2 54 00 00       	call   107e40 <atomic_begin>
    log("PALLOC COUNT=%d", count);
  10296e:	58                   	pop    eax
  10296f:	5a                   	pop    edx
  102970:	6a 01                	push   0x1
  102972:	68 82 20 11 00       	push   0x112082
  102977:	e8 24 ed ff ff       	call   1016a0 <log>
    for (uint i = 0; i < (TOTAL_MEMORY / PAGE_SIZE); i++)
  10297c:	8b 15 10 ae 23 00    	mov    edx,DWORD PTR ds:0x23ae10
  102982:	83 c4 10             	add    esp,0x10
  102985:	c1 ea 0c             	shr    edx,0xc
  102988:	85 d2                	test   edx,edx
  10298a:	74 28                	je     1029b4 <virtual_map+0x144>
        if (PHYSICAL_IS_USED(addr + i * PAGE_SIZE))
  10298c:	f6 05 00 a0 21 00 01 	test   BYTE PTR ds:0x21a000,0x1
  102993:	0f 85 97 00 00 00    	jne    102a30 <virtual_map+0x1c0>
    log("P_S_USED ADDR=0x%x COUNT=%d", addr, count);
  102999:	83 ec 04             	sub    esp,0x4
  10299c:	6a 01                	push   0x1
  10299e:	6a 00                	push   0x0
  1029a0:	68 a7 20 11 00       	push   0x1120a7
  1029a5:	e8 f6 ec ff ff       	call   1016a0 <log>
        PHYSICAL_SET_USED(addr + (i * PAGE_SIZE));
  1029aa:	80 0d 00 a0 21 00 01 	or     BYTE PTR ds:0x21a000,0x1
  1029b1:	83 c4 10             	add    esp,0x10
  1029b4:	31 db                	xor    ebx,ebx
  1029b6:	31 ff                	xor    edi,edi
    atomic_end();
  1029b8:	e8 a3 54 00 00       	call   107e60 <atomic_end>
            log("New page table at %x", ptable);
  1029bd:	83 ec 08             	sub    esp,0x8
  1029c0:	53                   	push   ebx
  1029c1:	68 92 20 11 00       	push   0x112092
  1029c6:	e8 d5 ec ff ff       	call   1016a0 <log>
            pde->Present = 1;
  1029cb:	8b 44 24 50          	mov    eax,DWORD PTR [esp+0x50]
            pde->User = user;
  1029cf:	8b 4c 24 50          	mov    ecx,DWORD PTR [esp+0x50]
            pde->PageFrameNumber = (u32)(ptable) >> 12;
  1029d3:	89 fa                	mov    edx,edi
  1029d5:	c1 e2 04             	shl    edx,0x4
            pde->Present = 1;
  1029d8:	0f b6 04 b0          	movzx  eax,BYTE PTR [eax+esi*4]
            pde->Write = 1;
  1029dc:	83 c8 03             	or     eax,0x3
            pde->User = user;
  1029df:	83 e0 fb             	and    eax,0xfffffffb
  1029e2:	0a 44 24 2f          	or     al,BYTE PTR [esp+0x2f]
  1029e6:	88 04 b1             	mov    BYTE PTR [ecx+esi*4],al
            pde->PageFrameNumber = (u32)(ptable) >> 12;
  1029e9:	0f b6 44 b1 01       	movzx  eax,BYTE PTR [ecx+esi*4+0x1]
  1029ee:	88 44 24 24          	mov    BYTE PTR [esp+0x24],al
  1029f2:	83 e0 0f             	and    eax,0xf
  1029f5:	83 c4 10             	add    esp,0x10
  1029f8:	09 d0                	or     eax,edx
  1029fa:	88 44 b1 01          	mov    BYTE PTR [ecx+esi*4+0x1],al
  1029fe:	89 f8                	mov    eax,edi
  102a00:	c1 ef 0c             	shr    edi,0xc
  102a03:	c1 e8 04             	shr    eax,0x4
  102a06:	88 44 b1 02          	mov    BYTE PTR [ecx+esi*4+0x2],al
  102a0a:	89 f8                	mov    eax,edi
  102a0c:	88 44 b1 03          	mov    BYTE PTR [ecx+esi*4+0x3],al
  102a10:	e9 d3 fe ff ff       	jmp    1028e8 <virtual_map+0x78>
  102a15:	8d 76 00             	lea    esi,[esi+0x0]
    paging_invalidate_tlb();
  102a18:	e8 07 2a 00 00       	call   105424 <paging_invalidate_tlb>
}
  102a1d:	83 c4 2c             	add    esp,0x2c
  102a20:	31 c0                	xor    eax,eax
  102a22:	5b                   	pop    ebx
  102a23:	5e                   	pop    esi
  102a24:	5f                   	pop    edi
  102a25:	5d                   	pop    ebp
  102a26:	c3                   	ret    
  102a27:	89 f6                	mov    esi,esi
  102a29:	8d bc 27 00 00 00 00 	lea    edi,[edi+eiz*1+0x0]
  102a30:	c1 e2 0c             	shl    edx,0xc
        if (PHYSICAL_IS_USED(addr + i * PAGE_SIZE))
  102a33:	bb 00 10 00 00       	mov    ebx,0x1000
  102a38:	89 54 24 14          	mov    DWORD PTR [esp+0x14],edx
  102a3c:	8d 74 26 00          	lea    esi,[esi+eiz*1+0x0]
    for (uint i = 0; i < (TOTAL_MEMORY / PAGE_SIZE); i++)
  102a40:	39 5c 24 14          	cmp    DWORD PTR [esp+0x14],ebx
  102a44:	0f 84 6a ff ff ff    	je     1029b4 <virtual_map+0x144>
  102a4a:	8d 83 00 10 00 00    	lea    eax,[ebx+0x1000]
        if (PHYSICAL_IS_USED(addr + i * PAGE_SIZE))
  102a50:	89 da                	mov    edx,ebx
  102a52:	89 df                	mov    edi,ebx
  102a54:	c1 ea 0f             	shr    edx,0xf
  102a57:	c1 ef 0c             	shr    edi,0xc
  102a5a:	89 44 24 18          	mov    DWORD PTR [esp+0x18],eax
  102a5e:	0f b6 82 00 a0 21 00 	movzx  eax,BYTE PTR [edx+0x21a000]
  102a65:	89 f9                	mov    ecx,edi
  102a67:	83 e1 07             	and    ecx,0x7
  102a6a:	0f a3 c8             	bt     eax,ecx
  102a6d:	72 61                	jb     102ad0 <virtual_map+0x260>
  102a6f:	89 54 24 18          	mov    DWORD PTR [esp+0x18],edx
  102a73:	89 4c 24 14          	mov    DWORD PTR [esp+0x14],ecx
    log("P_S_USED ADDR=0x%x COUNT=%d", addr, count);
  102a77:	83 ec 04             	sub    esp,0x4
  102a7a:	6a 01                	push   0x1
  102a7c:	53                   	push   ebx
  102a7d:	81 e7 ff ff 0f 00    	and    edi,0xfffff
  102a83:	68 a7 20 11 00       	push   0x1120a7
  102a88:	e8 13 ec ff ff       	call   1016a0 <log>
        PHYSICAL_SET_USED(addr + (i * PAGE_SIZE));
  102a8d:	8b 4c 24 24          	mov    ecx,DWORD PTR [esp+0x24]
  102a91:	8b 54 24 28          	mov    edx,DWORD PTR [esp+0x28]
  102a95:	b8 01 00 00 00       	mov    eax,0x1
    if (addr != 0)
  102a9a:	83 c4 10             	add    esp,0x10
        PHYSICAL_SET_USED(addr + (i * PAGE_SIZE));
  102a9d:	d3 e0                	shl    eax,cl
  102a9f:	08 82 00 a0 21 00    	or     BYTE PTR [edx+0x21a000],al
    if (addr != 0)
  102aa5:	85 db                	test   ebx,ebx
  102aa7:	0f 84 0b ff ff ff    	je     1029b8 <virtual_map+0x148>
        virtual_map(&kpdir, addr, addr, count, 0);
  102aad:	83 ec 0c             	sub    esp,0xc
  102ab0:	89 d9                	mov    ecx,ebx
  102ab2:	89 da                	mov    edx,ebx
  102ab4:	6a 00                	push   0x0
  102ab6:	b8 00 90 11 00       	mov    eax,0x119000
  102abb:	e8 c0 f6 ff ff       	call   102180 <virtual_map.constprop.2>
  102ac0:	83 c4 10             	add    esp,0x10
  102ac3:	e9 f0 fe ff ff       	jmp    1029b8 <virtual_map+0x148>
  102ac8:	90                   	nop
  102ac9:	8d b4 26 00 00 00 00 	lea    esi,[esi+eiz*1+0x0]
        if (PHYSICAL_IS_USED(addr + i * PAGE_SIZE))
  102ad0:	8b 5c 24 18          	mov    ebx,DWORD PTR [esp+0x18]
  102ad4:	e9 67 ff ff ff       	jmp    102a40 <virtual_map+0x1d0>
  102ad9:	8d b4 26 00 00 00 00 	lea    esi,[esi+eiz*1+0x0]

00102ae0 <virtual_unmap>:
{
  102ae0:	55                   	push   ebp
  102ae1:	57                   	push   edi
  102ae2:	56                   	push   esi
  102ae3:	53                   	push   ebx
  102ae4:	8b 74 24 1c          	mov    esi,DWORD PTR [esp+0x1c]
  102ae8:	8b 5c 24 14          	mov    ebx,DWORD PTR [esp+0x14]
  102aec:	8b 54 24 18          	mov    edx,DWORD PTR [esp+0x18]
    for (uint i = 0; i < count; i++)
  102af0:	85 f6                	test   esi,esi
  102af2:	74 58                	je     102b4c <virtual_unmap+0x6c>
  102af4:	31 c9                	xor    ecx,ecx
  102af6:	8d 76 00             	lea    esi,[esi+0x0]
  102af9:	8d bc 27 00 00 00 00 	lea    edi,[edi+eiz*1+0x0]
        uint pdi = PD_INDEX(vaddr + offset);
  102b00:	89 d5                	mov    ebp,edx
  102b02:	c1 ed 16             	shr    ebp,0x16
        if (pde->Present)
  102b05:	f6 04 ab 01          	test   BYTE PTR [ebx+ebp*4],0x1
  102b09:	74 34                	je     102b3f <virtual_unmap+0x5f>
        page_table_t *ptable = (page_table_t *)(pde->PageFrameNumber * PAGE_SIZE);
  102b0b:	0f b6 44 ab 01       	movzx  eax,BYTE PTR [ebx+ebp*4+0x1]
  102b10:	c0 e8 04             	shr    al,0x4
  102b13:	0f b6 f8             	movzx  edi,al
  102b16:	0f b6 44 ab 02       	movzx  eax,BYTE PTR [ebx+ebp*4+0x2]
  102b1b:	c1 e0 04             	shl    eax,0x4
  102b1e:	09 c7                	or     edi,eax
  102b20:	0f b6 44 ab 03       	movzx  eax,BYTE PTR [ebx+ebp*4+0x3]
  102b25:	c1 e0 0c             	shl    eax,0xc
  102b28:	09 f8                	or     eax,edi
        uint pti = PT_INDEX(vaddr + offset);
  102b2a:	89 d7                	mov    edi,edx
  102b2c:	c1 ef 0c             	shr    edi,0xc
            p->as_uint = 0;
  102b2f:	c1 e0 0c             	shl    eax,0xc
        uint pti = PT_INDEX(vaddr + offset);
  102b32:	81 e7 ff 03 00 00    	and    edi,0x3ff
            p->as_uint = 0;
  102b38:	c7 04 b8 00 00 00 00 	mov    DWORD PTR [eax+edi*4],0x0
    for (uint i = 0; i < count; i++)
  102b3f:	83 c1 01             	add    ecx,0x1
  102b42:	81 c2 00 10 00 00    	add    edx,0x1000
  102b48:	39 ce                	cmp    esi,ecx
  102b4a:	75 b4                	jne    102b00 <virtual_unmap+0x20>
}
  102b4c:	5b                   	pop    ebx
  102b4d:	5e                   	pop    esi
  102b4e:	5f                   	pop    edi
  102b4f:	5d                   	pop    ebp
    paging_invalidate_tlb();
  102b50:	e9 cf 28 00 00       	jmp    105424 <paging_invalidate_tlb>
  102b55:	8d 74 26 00          	lea    esi,[esi+eiz*1+0x0]
  102b59:	8d bc 27 00 00 00 00 	lea    edi,[edi+eiz*1+0x0]

00102b60 <memory_setup>:
{
  102b60:	57                   	push   edi
  102b61:	56                   	push   esi
  102b62:	53                   	push   ebx
  102b63:	8b 44 24 14          	mov    eax,DWORD PTR [esp+0x14]
  102b67:	8b 5c 24 10          	mov    ebx,DWORD PTR [esp+0x10]
    log("Memory: USED=%dko TOTAL=%dko", used / 1024, total / 1024);
  102b6b:	83 ec 04             	sub    esp,0x4
    TOTAL_MEMORY = total;
  102b6e:	a3 10 ae 23 00       	mov    ds:0x23ae10,eax
    log("Memory: USED=%dko TOTAL=%dko", used / 1024, total / 1024);
  102b73:	c1 e8 0a             	shr    eax,0xa
  102b76:	50                   	push   eax
  102b77:	89 d8                	mov    eax,ebx
  102b79:	c1 e8 0a             	shr    eax,0xa
  102b7c:	50                   	push   eax
  102b7d:	68 f8 20 11 00       	push   0x1120f8
  102b82:	e8 19 eb ff ff       	call   1016a0 <log>
  102b87:	b9 00 a0 11 00       	mov    ecx,0x11a000
  102b8c:	83 c4 10             	add    esp,0x10
    for (uint i = 0; i < 256; i++)
  102b8f:	31 c0                	xor    eax,eax
  102b91:	8d b4 26 00 00 00 00 	lea    esi,[esi+eiz*1+0x0]
        e->User = 0;
  102b98:	0f b6 14 85 00 90 11 	movzx  edx,BYTE PTR [eax*4+0x119000]
  102b9f:	00 
        e->PageFrameNumber = (uint)&kptable[i] / PAGE_SIZE;
  102ba0:	89 ce                	mov    esi,ecx
  102ba2:	81 c1 00 10 00 00    	add    ecx,0x1000
  102ba8:	81 e6 00 f0 ff ff    	and    esi,0xfffff000
        e->User = 0;
  102bae:	83 e2 fb             	and    edx,0xfffffffb
        e->Present = 1;
  102bb1:	83 ca 03             	or     edx,0x3
  102bb4:	88 14 85 00 90 11 00 	mov    BYTE PTR [eax*4+0x119000],dl
        e->PageFrameNumber = (uint)&kptable[i] / PAGE_SIZE;
  102bbb:	8b 14 85 00 90 11 00 	mov    edx,DWORD PTR [eax*4+0x119000]
  102bc2:	81 e2 ff 0f 00 00    	and    edx,0xfff
  102bc8:	09 f2                	or     edx,esi
  102bca:	89 14 85 00 90 11 00 	mov    DWORD PTR [eax*4+0x119000],edx
    for (uint i = 0; i < 256; i++)
  102bd1:	83 c0 01             	add    eax,0x1
  102bd4:	3d 00 01 00 00       	cmp    eax,0x100
  102bd9:	75 bd                	jne    102b98 <memory_setup+0x38>
    uint count = PAGE_ALIGN(used) / PAGE_SIZE;
  102bdb:	81 e3 00 f0 ff ff    	and    ebx,0xfffff000
    log("P_S_USED ADDR=0x%x COUNT=%d", addr, count);
  102be1:	83 ec 04             	sub    esp,0x4
    uint count = PAGE_ALIGN(used) / PAGE_SIZE;
  102be4:	81 c3 00 10 00 00    	add    ebx,0x1000
  102bea:	c1 eb 0c             	shr    ebx,0xc
    log("P_S_USED ADDR=0x%x COUNT=%d", addr, count);
  102bed:	53                   	push   ebx
  102bee:	6a 00                	push   0x0
  102bf0:	68 a7 20 11 00       	push   0x1120a7
  102bf5:	e8 a6 ea ff ff       	call   1016a0 <log>
    for (uint i = 0; i < count; i++)
  102bfa:	83 c4 10             	add    esp,0x10
  102bfd:	85 db                	test   ebx,ebx
  102bff:	74 2f                	je     102c30 <memory_setup+0xd0>
  102c01:	31 c0                	xor    eax,eax
        PHYSICAL_SET_USED(addr + (i * PAGE_SIZE));
  102c03:	be 01 00 00 00       	mov    esi,0x1
  102c08:	90                   	nop
  102c09:	8d b4 26 00 00 00 00 	lea    esi,[esi+eiz*1+0x0]
  102c10:	89 c2                	mov    edx,eax
  102c12:	89 c1                	mov    ecx,eax
  102c14:	89 f7                	mov    edi,esi
  102c16:	83 e1 07             	and    ecx,0x7
  102c19:	c1 e2 0c             	shl    edx,0xc
    for (uint i = 0; i < count; i++)
  102c1c:	83 c0 01             	add    eax,0x1
        PHYSICAL_SET_USED(addr + (i * PAGE_SIZE));
  102c1f:	c1 ea 0f             	shr    edx,0xf
  102c22:	d3 e7                	shl    edi,cl
  102c24:	89 f9                	mov    ecx,edi
  102c26:	08 8a 00 a0 21 00    	or     BYTE PTR [edx+0x21a000],cl
    for (uint i = 0; i < count; i++)
  102c2c:	39 c3                	cmp    ebx,eax
  102c2e:	75 e0                	jne    102c10 <memory_setup+0xb0>
    virtual_map(&kpdir, 0, 0, count, 0);
  102c30:	83 ec 0c             	sub    esp,0xc
  102c33:	6a 00                	push   0x0
  102c35:	53                   	push   ebx
  102c36:	6a 00                	push   0x0
  102c38:	6a 00                	push   0x0
  102c3a:	68 00 90 11 00       	push   0x119000
  102c3f:	e8 2c fc ff ff       	call   102870 <virtual_map>
    log("Enabling paging...");
  102c44:	83 c4 14             	add    esp,0x14
  102c47:	68 15 21 11 00       	push   0x112115
  102c4c:	e8 4f ea ff ff       	call   1016a0 <log>
    paging_load_directorie(&kpdir);
  102c51:	c7 04 24 00 90 11 00 	mov    DWORD PTR [esp],0x119000
  102c58:	e8 bf 27 00 00       	call   10541c <paging_load_directorie>
    paging_enable();
  102c5d:	e8 ae 27 00 00       	call   105410 <paging_enable>
    log("Paging enabled!");
  102c62:	83 c4 10             	add    esp,0x10
  102c65:	c7 44 24 10 28 21 11 	mov    DWORD PTR [esp+0x10],0x112128
  102c6c:	00 
}
  102c6d:	5b                   	pop    ebx
  102c6e:	5e                   	pop    esi
  102c6f:	5f                   	pop    edi
    log("Paging enabled!");
  102c70:	e9 2b ea ff ff       	jmp    1016a0 <log>
  102c75:	8d 74 26 00          	lea    esi,[esi+eiz*1+0x0]
  102c79:	8d bc 27 00 00 00 00 	lea    edi,[edi+eiz*1+0x0]

00102c80 <memory_kpdir>:
}
  102c80:	b8 00 90 11 00       	mov    eax,0x119000
  102c85:	c3                   	ret    
  102c86:	8d 76 00             	lea    esi,[esi+0x0]
  102c89:	8d bc 27 00 00 00 00 	lea    edi,[edi+eiz*1+0x0]

00102c90 <memory_alloc>:
{
  102c90:	55                   	push   ebp
  102c91:	57                   	push   edi
  102c92:	56                   	push   esi
  102c93:	53                   	push   ebx
  102c94:	83 ec 1c             	sub    esp,0x1c
  102c97:	8b 7c 24 30          	mov    edi,DWORD PTR [esp+0x30]
    atomic_begin();
  102c9b:	e8 a0 51 00 00       	call   107e40 <atomic_begin>
    log("PALLOC COUNT=%d", count);
  102ca0:	83 ec 08             	sub    esp,0x8
  102ca3:	57                   	push   edi
  102ca4:	68 82 20 11 00       	push   0x112082
  102ca9:	e8 f2 e9 ff ff       	call   1016a0 <log>
    for (uint i = 0; i < (TOTAL_MEMORY / PAGE_SIZE); i++)
  102cae:	8b 35 10 ae 23 00    	mov    esi,DWORD PTR ds:0x23ae10
  102cb4:	83 c4 10             	add    esp,0x10
  102cb7:	c1 ee 0c             	shr    esi,0xc
  102cba:	85 f6                	test   esi,esi
  102cbc:	0f 84 ca 00 00 00    	je     102d8c <memory_alloc+0xfc>
  102cc2:	c1 e6 0c             	shl    esi,0xc
  102cc5:	89 74 24 0c          	mov    DWORD PTR [esp+0xc],esi
  102cc9:	31 f6                	xor    esi,esi
  102ccb:	90                   	nop
  102ccc:	8d 74 26 00          	lea    esi,[esi+eiz*1+0x0]
    for (uint i = 0; i < count; i++)
  102cd0:	85 ff                	test   edi,edi
  102cd2:	0f 84 e8 00 00 00    	je     102dc0 <memory_alloc+0x130>
        if (PHYSICAL_IS_USED(addr + i * PAGE_SIZE))
  102cd8:	89 f0                	mov    eax,esi
  102cda:	8d ae 00 10 00 00    	lea    ebp,[esi+0x1000]
  102ce0:	c1 e8 0f             	shr    eax,0xf
  102ce3:	0f b6 90 00 a0 21 00 	movzx  edx,BYTE PTR [eax+0x21a000]
  102cea:	89 f0                	mov    eax,esi
  102cec:	c1 e8 0c             	shr    eax,0xc
  102cef:	83 e0 07             	and    eax,0x7
  102cf2:	0f a3 c2             	bt     edx,eax
  102cf5:	0f 82 a5 00 00 00    	jb     102da0 <memory_alloc+0x110>
  102cfb:	89 e8                	mov    eax,ebp
    for (uint i = 0; i < count; i++)
  102cfd:	31 db                	xor    ebx,ebx
  102cff:	eb 25                	jmp    102d26 <memory_alloc+0x96>
  102d01:	8d b4 26 00 00 00 00 	lea    esi,[esi+eiz*1+0x0]
        if (PHYSICAL_IS_USED(addr + i * PAGE_SIZE))
  102d08:	89 c2                	mov    edx,eax
  102d0a:	c1 ea 0f             	shr    edx,0xf
  102d0d:	0f b6 8a 00 a0 21 00 	movzx  ecx,BYTE PTR [edx+0x21a000]
  102d14:	89 c2                	mov    edx,eax
  102d16:	05 00 10 00 00       	add    eax,0x1000
  102d1b:	c1 ea 0c             	shr    edx,0xc
  102d1e:	83 e2 07             	and    edx,0x7
  102d21:	0f a3 d1             	bt     ecx,edx
  102d24:	72 7a                	jb     102da0 <memory_alloc+0x110>
    for (uint i = 0; i < count; i++)
  102d26:	83 c3 01             	add    ebx,0x1
  102d29:	39 df                	cmp    edi,ebx
  102d2b:	75 db                	jne    102d08 <memory_alloc+0x78>
    log("P_S_USED ADDR=0x%x COUNT=%d", addr, count);
  102d2d:	83 ec 04             	sub    esp,0x4
  102d30:	57                   	push   edi
  102d31:	56                   	push   esi
  102d32:	68 a7 20 11 00       	push   0x1120a7
  102d37:	e8 64 e9 ff ff       	call   1016a0 <log>
  102d3c:	83 c4 10             	add    esp,0x10
  102d3f:	89 f0                	mov    eax,esi
    for (uint i = 0; i < count; i++)
  102d41:	31 d2                	xor    edx,edx
  102d43:	89 74 24 0c          	mov    DWORD PTR [esp+0xc],esi
        PHYSICAL_SET_USED(addr + (i * PAGE_SIZE));
  102d47:	89 c1                	mov    ecx,eax
  102d49:	89 c5                	mov    ebp,eax
  102d4b:	be 01 00 00 00       	mov    esi,0x1
  102d50:	c1 e9 0c             	shr    ecx,0xc
  102d53:	c1 ed 0f             	shr    ebp,0xf
    for (uint i = 0; i < count; i++)
  102d56:	83 c2 01             	add    edx,0x1
        PHYSICAL_SET_USED(addr + (i * PAGE_SIZE));
  102d59:	83 e1 07             	and    ecx,0x7
  102d5c:	05 00 10 00 00       	add    eax,0x1000
  102d61:	d3 e6                	shl    esi,cl
  102d63:	89 f1                	mov    ecx,esi
  102d65:	08 8d 00 a0 21 00    	or     BYTE PTR [ebp+0x21a000],cl
    for (uint i = 0; i < count; i++)
  102d6b:	39 d3                	cmp    ebx,edx
  102d6d:	75 d8                	jne    102d47 <memory_alloc+0xb7>
  102d6f:	8b 74 24 0c          	mov    esi,DWORD PTR [esp+0xc]
    if (addr != 0)
  102d73:	85 f6                	test   esi,esi
  102d75:	74 15                	je     102d8c <memory_alloc+0xfc>
        virtual_map(&kpdir, addr, addr, count, 0);
  102d77:	83 ec 0c             	sub    esp,0xc
  102d7a:	6a 00                	push   0x0
  102d7c:	57                   	push   edi
  102d7d:	56                   	push   esi
  102d7e:	56                   	push   esi
  102d7f:	68 00 90 11 00       	push   0x119000
  102d84:	e8 e7 fa ff ff       	call   102870 <virtual_map>
  102d89:	83 c4 20             	add    esp,0x20
    atomic_end();
  102d8c:	e8 cf 50 00 00       	call   107e60 <atomic_end>

    return addr;
}
  102d91:	83 c4 1c             	add    esp,0x1c
  102d94:	89 f0                	mov    eax,esi
  102d96:	5b                   	pop    ebx
  102d97:	5e                   	pop    esi
  102d98:	5f                   	pop    edi
  102d99:	5d                   	pop    ebp
  102d9a:	c3                   	ret    
  102d9b:	90                   	nop
  102d9c:	8d 74 26 00          	lea    esi,[esi+eiz*1+0x0]
    for (uint i = 0; i < (TOTAL_MEMORY / PAGE_SIZE); i++)
  102da0:	39 6c 24 0c          	cmp    DWORD PTR [esp+0xc],ebp
  102da4:	89 ee                	mov    esi,ebp
  102da6:	0f 85 24 ff ff ff    	jne    102cd0 <memory_alloc+0x40>
    atomic_end();
  102dac:	e8 af 50 00 00       	call   107e60 <atomic_end>
    return 0;
  102db1:	31 f6                	xor    esi,esi
}
  102db3:	83 c4 1c             	add    esp,0x1c
  102db6:	5b                   	pop    ebx
  102db7:	89 f0                	mov    eax,esi
  102db9:	5e                   	pop    esi
  102dba:	5f                   	pop    edi
  102dbb:	5d                   	pop    ebp
  102dbc:	c3                   	ret    
  102dbd:	8d 76 00             	lea    esi,[esi+0x0]
    log("P_S_USED ADDR=0x%x COUNT=%d", addr, count);
  102dc0:	83 ec 04             	sub    esp,0x4
  102dc3:	6a 00                	push   0x0
  102dc5:	56                   	push   esi
  102dc6:	68 a7 20 11 00       	push   0x1120a7
  102dcb:	e8 d0 e8 ff ff       	call   1016a0 <log>
  102dd0:	83 c4 10             	add    esp,0x10
  102dd3:	eb 9e                	jmp    102d73 <memory_alloc+0xe3>
  102dd5:	8d 74 26 00          	lea    esi,[esi+eiz*1+0x0]
  102dd9:	8d bc 27 00 00 00 00 	lea    edi,[edi+eiz*1+0x0]

00102de0 <memory_free>:

void memory_free(uint addr, uint count)
{
  102de0:	55                   	push   ebp
  102de1:	57                   	push   edi
  102de2:	56                   	push   esi
  102de3:	53                   	push   ebx
  102de4:	83 ec 1c             	sub    esp,0x1c
  102de7:	8b 44 24 34          	mov    eax,DWORD PTR [esp+0x34]
  102deb:	8b 5c 24 30          	mov    ebx,DWORD PTR [esp+0x30]
  102def:	89 44 24 0c          	mov    DWORD PTR [esp+0xc],eax
  102df3:	89 c7                	mov    edi,eax
    atomic_begin();
  102df5:	e8 46 50 00 00       	call   107e40 <atomic_begin>
    log("P_S_FREE ADDR=%d COUNT=%d", addr, count);
  102dfa:	83 ec 04             	sub    esp,0x4
  102dfd:	57                   	push   edi
  102dfe:	53                   	push   ebx
  102dff:	68 c3 20 11 00       	push   0x1120c3
  102e04:	e8 97 e8 ff ff       	call   1016a0 <log>
    for (uint i = 0; i < count; i++)
  102e09:	83 c4 10             	add    esp,0x10
  102e0c:	85 ff                	test   edi,edi
  102e0e:	74 7b                	je     102e8b <memory_free+0xab>
  102e10:	89 da                	mov    edx,ebx
  102e12:	31 c0                	xor    eax,eax
        PHYSICAL_SET_FREE(addr + (i * PAGE_SIZE));
  102e14:	bd 01 00 00 00       	mov    ebp,0x1
  102e19:	8d b4 26 00 00 00 00 	lea    esi,[esi+eiz*1+0x0]
  102e20:	89 d1                	mov    ecx,edx
  102e22:	89 ef                	mov    edi,ebp
  102e24:	89 d6                	mov    esi,edx
  102e26:	c1 e9 0c             	shr    ecx,0xc
  102e29:	c1 ee 0f             	shr    esi,0xf
    for (uint i = 0; i < count; i++)
  102e2c:	83 c0 01             	add    eax,0x1
        PHYSICAL_SET_FREE(addr + (i * PAGE_SIZE));
  102e2f:	83 e1 07             	and    ecx,0x7
  102e32:	81 c2 00 10 00 00    	add    edx,0x1000
  102e38:	d3 e7                	shl    edi,cl
  102e3a:	89 f9                	mov    ecx,edi
  102e3c:	f7 d1                	not    ecx
  102e3e:	20 8e 00 a0 21 00    	and    BYTE PTR [esi+0x21a000],cl
    for (uint i = 0; i < count; i++)
  102e44:	39 44 24 0c          	cmp    DWORD PTR [esp+0xc],eax
  102e48:	75 d6                	jne    102e20 <memory_free+0x40>
    for (uint i = 0; i < count; i++)
  102e4a:	31 d2                	xor    edx,edx
  102e4c:	8d 74 26 00          	lea    esi,[esi+eiz*1+0x0]
        uint pdi = PD_INDEX(vaddr + offset);
  102e50:	89 d9                	mov    ecx,ebx
  102e52:	c1 e9 16             	shr    ecx,0x16
        if (pde->Present)
  102e55:	f6 04 8d 00 90 11 00 	test   BYTE PTR [ecx*4+0x119000],0x1
  102e5c:	01 
  102e5d:	74 1f                	je     102e7e <memory_free+0x9e>
        page_table_t *ptable = (page_table_t *)(pde->PageFrameNumber * PAGE_SIZE);
  102e5f:	8b 0c 8d 00 90 11 00 	mov    ecx,DWORD PTR [ecx*4+0x119000]
        uint pti = PT_INDEX(vaddr + offset);
  102e66:	89 de                	mov    esi,ebx
  102e68:	c1 ee 0c             	shr    esi,0xc
  102e6b:	81 e6 ff 03 00 00    	and    esi,0x3ff
            p->as_uint = 0;
  102e71:	81 e1 00 f0 ff ff    	and    ecx,0xfffff000
  102e77:	c7 04 b1 00 00 00 00 	mov    DWORD PTR [ecx+esi*4],0x0
    for (uint i = 0; i < count; i++)
  102e7e:	83 c2 01             	add    edx,0x1
  102e81:	81 c3 00 10 00 00    	add    ebx,0x1000
  102e87:	39 c2                	cmp    edx,eax
  102e89:	75 c5                	jne    102e50 <memory_free+0x70>
    paging_invalidate_tlb();
  102e8b:	e8 94 25 00 00       	call   105424 <paging_invalidate_tlb>

    physical_free(addr, count);
    virtual_unmap(&kpdir, addr, count);

    atomic_end();
}
  102e90:	83 c4 1c             	add    esp,0x1c
  102e93:	5b                   	pop    ebx
  102e94:	5e                   	pop    esi
  102e95:	5f                   	pop    edi
  102e96:	5d                   	pop    ebp
    atomic_end();
  102e97:	e9 c4 4f 00 00       	jmp    107e60 <atomic_end>
  102e9c:	8d 74 26 00          	lea    esi,[esi+eiz*1+0x0]

00102ea0 <memory_alloc_pdir>:

// Alloc a pdir for a process
page_directorie_t *memory_alloc_pdir()
{
  102ea0:	57                   	push   edi
  102ea1:	56                   	push   esi
  102ea2:	53                   	push   ebx
    atomic_begin();
  102ea3:	e8 98 4f 00 00       	call   107e40 <atomic_begin>
    atomic_begin();
  102ea8:	e8 93 4f 00 00       	call   107e40 <atomic_begin>
    log("PALLOC COUNT=%d", count);
  102ead:	83 ec 08             	sub    esp,0x8
  102eb0:	6a 01                	push   0x1
  102eb2:	68 82 20 11 00       	push   0x112082
  102eb7:	e8 e4 e7 ff ff       	call   1016a0 <log>
    for (uint i = 0; i < (TOTAL_MEMORY / PAGE_SIZE); i++)
  102ebc:	8b 15 10 ae 23 00    	mov    edx,DWORD PTR ds:0x23ae10
  102ec2:	83 c4 10             	add    esp,0x10
  102ec5:	c1 ea 0c             	shr    edx,0xc
  102ec8:	85 d2                	test   edx,edx
  102eca:	74 24                	je     102ef0 <memory_alloc_pdir+0x50>
        if (PHYSICAL_IS_USED(addr + i * PAGE_SIZE))
  102ecc:	f6 05 00 a0 21 00 01 	test   BYTE PTR ds:0x21a000,0x1
  102ed3:	75 69                	jne    102f3e <memory_alloc_pdir+0x9e>
    log("P_S_USED ADDR=0x%x COUNT=%d", addr, count);
  102ed5:	83 ec 04             	sub    esp,0x4
  102ed8:	6a 01                	push   0x1
  102eda:	6a 00                	push   0x0
  102edc:	68 a7 20 11 00       	push   0x1120a7
  102ee1:	e8 ba e7 ff ff       	call   1016a0 <log>
        PHYSICAL_SET_USED(addr + (i * PAGE_SIZE));
  102ee6:	80 0d 00 a0 21 00 01 	or     BYTE PTR ds:0x21a000,0x1
  102eed:	83 c4 10             	add    esp,0x10
  102ef0:	31 db                	xor    ebx,ebx
    atomic_end();
  102ef2:	e8 69 4f 00 00       	call   107e60 <atomic_end>
  102ef7:	b9 00 a0 11 00       	mov    ecx,0x11a000

    page_directorie_t *pdir = (page_directorie_t *)memory_alloc(1);

    // Copy first gigs of virtual memory (kernel space);
    for (uint i = 0; i < 256; i++)
  102efc:	31 c0                	xor    eax,eax
  102efe:	66 90                	xchg   ax,ax
    {
        page_directorie_entry_t *e = &pdir->entries[i];
        e->User = 0;
  102f00:	0f b6 14 83          	movzx  edx,BYTE PTR [ebx+eax*4]
        e->Write = 1;
        e->Present = 1;
        e->PageFrameNumber = (uint)(&kptable[i]) / PAGE_SIZE;
  102f04:	89 ce                	mov    esi,ecx
  102f06:	81 c1 00 10 00 00    	add    ecx,0x1000
  102f0c:	81 e6 00 f0 ff ff    	and    esi,0xfffff000
        e->User = 0;
  102f12:	83 e2 fb             	and    edx,0xfffffffb
        e->Present = 1;
  102f15:	83 ca 03             	or     edx,0x3
  102f18:	88 14 83             	mov    BYTE PTR [ebx+eax*4],dl
        e->PageFrameNumber = (uint)(&kptable[i]) / PAGE_SIZE;
  102f1b:	8b 14 83             	mov    edx,DWORD PTR [ebx+eax*4]
  102f1e:	81 e2 ff 0f 00 00    	and    edx,0xfff
  102f24:	09 f2                	or     edx,esi
  102f26:	89 14 83             	mov    DWORD PTR [ebx+eax*4],edx
    for (uint i = 0; i < 256; i++)
  102f29:	83 c0 01             	add    eax,0x1
  102f2c:	3d 00 01 00 00       	cmp    eax,0x100
  102f31:	75 cd                	jne    102f00 <memory_alloc_pdir+0x60>
    }

    atomic_end();
  102f33:	e8 28 4f 00 00       	call   107e60 <atomic_end>

    return pdir;
}
  102f38:	89 d8                	mov    eax,ebx
  102f3a:	5b                   	pop    ebx
  102f3b:	5e                   	pop    esi
  102f3c:	5f                   	pop    edi
  102f3d:	c3                   	ret    
  102f3e:	c1 e2 0c             	shl    edx,0xc
        if (PHYSICAL_IS_USED(addr + i * PAGE_SIZE))
  102f41:	bb 00 10 00 00       	mov    ebx,0x1000
    for (uint i = 0; i < (TOTAL_MEMORY / PAGE_SIZE); i++)
  102f46:	39 da                	cmp    edx,ebx
  102f48:	74 a6                	je     102ef0 <memory_alloc_pdir+0x50>
        if (PHYSICAL_IS_USED(addr + i * PAGE_SIZE))
  102f4a:	89 df                	mov    edi,ebx
  102f4c:	89 de                	mov    esi,ebx
  102f4e:	8d 8b 00 10 00 00    	lea    ecx,[ebx+0x1000]
  102f54:	c1 ef 0f             	shr    edi,0xf
  102f57:	c1 ee 0c             	shr    esi,0xc
  102f5a:	0f b6 87 00 a0 21 00 	movzx  eax,BYTE PTR [edi+0x21a000]
  102f61:	83 e6 07             	and    esi,0x7
  102f64:	0f a3 f0             	bt     eax,esi
  102f67:	72 45                	jb     102fae <memory_alloc_pdir+0x10e>
    log("P_S_USED ADDR=0x%x COUNT=%d", addr, count);
  102f69:	83 ec 04             	sub    esp,0x4
  102f6c:	6a 01                	push   0x1
  102f6e:	53                   	push   ebx
  102f6f:	68 a7 20 11 00       	push   0x1120a7
  102f74:	e8 27 e7 ff ff       	call   1016a0 <log>
        PHYSICAL_SET_USED(addr + (i * PAGE_SIZE));
  102f79:	b8 01 00 00 00       	mov    eax,0x1
  102f7e:	89 f1                	mov    ecx,esi
    if (addr != 0)
  102f80:	83 c4 10             	add    esp,0x10
        PHYSICAL_SET_USED(addr + (i * PAGE_SIZE));
  102f83:	d3 e0                	shl    eax,cl
  102f85:	08 87 00 a0 21 00    	or     BYTE PTR [edi+0x21a000],al
    if (addr != 0)
  102f8b:	85 db                	test   ebx,ebx
  102f8d:	0f 84 5f ff ff ff    	je     102ef2 <memory_alloc_pdir+0x52>
        virtual_map(&kpdir, addr, addr, count, 0);
  102f93:	83 ec 0c             	sub    esp,0xc
  102f96:	89 d9                	mov    ecx,ebx
  102f98:	89 da                	mov    edx,ebx
  102f9a:	6a 00                	push   0x0
  102f9c:	b8 00 90 11 00       	mov    eax,0x119000
  102fa1:	e8 da f1 ff ff       	call   102180 <virtual_map.constprop.2>
  102fa6:	83 c4 10             	add    esp,0x10
  102fa9:	e9 44 ff ff ff       	jmp    102ef2 <memory_alloc_pdir+0x52>
        if (PHYSICAL_IS_USED(addr + i * PAGE_SIZE))
  102fae:	89 cb                	mov    ebx,ecx
  102fb0:	eb 94                	jmp    102f46 <memory_alloc_pdir+0xa6>
  102fb2:	8d b4 26 00 00 00 00 	lea    esi,[esi+eiz*1+0x0]
  102fb9:	8d bc 27 00 00 00 00 	lea    edi,[edi+eiz*1+0x0]

00102fc0 <memory_free_pdir>:

// Free the pdir of a dying process
void memory_free_pdir(page_directorie_t *pdir)
{
  102fc0:	55                   	push   ebp
  102fc1:	57                   	push   edi
  102fc2:	56                   	push   esi
  102fc3:	53                   	push   ebx
        PHYSICAL_SET_FREE(addr + (i * PAGE_SIZE));
  102fc4:	be 01 00 00 00       	mov    esi,0x1
{
  102fc9:	83 ec 1c             	sub    esp,0x1c
  102fcc:	8b 44 24 30          	mov    eax,DWORD PTR [esp+0x30]
  102fd0:	89 44 24 08          	mov    DWORD PTR [esp+0x8],eax
    atomic_begin();
  102fd4:	e8 67 4e 00 00       	call   107e40 <atomic_begin>

    for (size_t i = 256; i < 1024; i++)
  102fd9:	c7 44 24 04 00 01 00 	mov    DWORD PTR [esp+0x4],0x100
  102fe0:	00 
  102fe1:	eb 1d                	jmp    103000 <memory_free_pdir+0x40>
  102fe3:	83 44 24 04 01       	add    DWORD PTR [esp+0x4],0x1
  102fe8:	8b 44 24 04          	mov    eax,DWORD PTR [esp+0x4]
  102fec:	3d 00 04 00 00       	cmp    eax,0x400
  102ff1:	0f 84 19 01 00 00    	je     103110 <memory_free_pdir+0x150>
  102ff7:	89 f6                	mov    esi,esi
  102ff9:	8d bc 27 00 00 00 00 	lea    edi,[edi+eiz*1+0x0]
    {
        page_directorie_entry_t *e = &pdir->entries[i];

        if (e->Present)
  103000:	8b 44 24 08          	mov    eax,DWORD PTR [esp+0x8]
  103004:	8b 54 24 04          	mov    edx,DWORD PTR [esp+0x4]
  103008:	f6 04 90 01          	test   BYTE PTR [eax+edx*4],0x1
  10300c:	74 d5                	je     102fe3 <memory_free_pdir+0x23>
        {
            page_table_t *pt = (page_table_t *)(e->PageFrameNumber * PAGE_SIZE);
  10300e:	89 c1                	mov    ecx,eax
  103010:	0f b6 44 90 01       	movzx  eax,BYTE PTR [eax+edx*4+0x1]
  103015:	89 d7                	mov    edi,edx
            for (size_t i = 0; i < 1024; i++)
  103017:	31 db                	xor    ebx,ebx
            page_table_t *pt = (page_table_t *)(e->PageFrameNumber * PAGE_SIZE);
  103019:	88 44 24 0f          	mov    BYTE PTR [esp+0xf],al
  10301d:	89 c2                	mov    edx,eax
  10301f:	0f b6 44 b9 02       	movzx  eax,BYTE PTR [ecx+edi*4+0x2]
  103024:	c0 ea 04             	shr    dl,0x4
  103027:	0f b6 d2             	movzx  edx,dl
  10302a:	c1 e0 04             	shl    eax,0x4
  10302d:	09 c2                	or     edx,eax
  10302f:	0f b6 44 b9 03       	movzx  eax,BYTE PTR [ecx+edi*4+0x3]
  103034:	c1 e0 0c             	shl    eax,0xc
  103037:	09 d0                	or     eax,edx
  103039:	c1 e0 0c             	shl    eax,0xc
  10303c:	89 c5                	mov    ebp,eax
  10303e:	eb 0b                	jmp    10304b <memory_free_pdir+0x8b>
            for (size_t i = 0; i < 1024; i++)
  103040:	83 c3 01             	add    ebx,0x1
  103043:	81 fb 00 04 00 00    	cmp    ebx,0x400
  103049:	74 4a                	je     103095 <memory_free_pdir+0xd5>
            {
                page_t *p = &pt->pages[i];

                if (p->Present)
  10304b:	f6 44 9d 00 01       	test   BYTE PTR [ebp+ebx*4+0x0],0x1
  103050:	74 ee                	je     103040 <memory_free_pdir+0x80>
                {
                    physical_free(p->PageFrameNumber * PAGE_SIZE, 1);
  103052:	8b 7c 9d 00          	mov    edi,DWORD PTR [ebp+ebx*4+0x0]
    log("P_S_FREE ADDR=%d COUNT=%d", addr, count);
  103056:	83 ec 04             	sub    esp,0x4
            for (size_t i = 0; i < 1024; i++)
  103059:	83 c3 01             	add    ebx,0x1
